TI ARM Assembler PC v5.1.7 Thu Oct 02 08:28:40 2014

Tools Copyright (c) 1996-2014 Texas Instruments Incorporated
tasks.asm                                                            PAGE    1

       1                    ;******************************************************************************
       2                    ;* TI ARM C/C++ Codegen                                             PC v5.1.7 *
       3                    ;* Date/Time created: Thu Oct 02 08:28:39 2014                                *
       4                    ;******************************************************************************
       5                            .compiler_opts --abi=eabi --arm_vmrs_si_workaround=off --code_state=16 --disable_dual_state --
       6 00000000                   .thumb
       7                    
       8                    $C$DW$CU        .dwtag  DW_TAG_compile_unit
       9                            .dwattr $C$DW$CU, DW_AT_name("../Source/tasks.c")
      10                            .dwattr $C$DW$CU, DW_AT_producer("TI TI ARM C/C++ Codegen PC v5.1.7 Copyright (c) 1996-2014 Te
      11                            .dwattr $C$DW$CU, DW_AT_TI_version(0x01)
      12                            .dwattr $C$DW$CU, DW_AT_comp_dir("H:\EECS_388\TI_ARM_Projects\FreeRTOS_LM3S1968\Debug")
      13                    
      14                    $C$DW$1 .dwtag  DW_TAG_subprogram, DW_AT_name("strncpy")
      15                            .dwattr $C$DW$1, DW_AT_TI_symbol_name("strncpy")
      16                            .dwattr $C$DW$1, DW_AT_type(*$C$DW$T$135)
      17                            .dwattr $C$DW$1, DW_AT_declaration
      18                            .dwattr $C$DW$1, DW_AT_external
      19                            .dwattr $C$DW$1, DW_AT_decl_file("C:/TI_CodeComposer/ccsv6/tools/compiler/arm_5.1.7/include/st
      20                            .dwattr $C$DW$1, DW_AT_decl_line(0x49)
      21                            .dwattr $C$DW$1, DW_AT_decl_column(0x12)
      22                    $C$DW$2 .dwtag  DW_TAG_formal_parameter
      23                            .dwattr $C$DW$2, DW_AT_type(*$C$DW$T$135)
      24                    $C$DW$3 .dwtag  DW_TAG_formal_parameter
      25                            .dwattr $C$DW$3, DW_AT_type(*$C$DW$T$137)
      26                    $C$DW$4 .dwtag  DW_TAG_formal_parameter
      27                            .dwattr $C$DW$4, DW_AT_type(*$C$DW$T$60)
      28                            .dwendtag $C$DW$1
      29                    
      30                    
      31                    $C$DW$5 .dwtag  DW_TAG_subprogram, DW_AT_name("memset")
      32                            .dwattr $C$DW$5, DW_AT_TI_symbol_name("memset")
      33                            .dwattr $C$DW$5, DW_AT_type(*$C$DW$T$3)
      34                            .dwattr $C$DW$5, DW_AT_declaration
      35                            .dwattr $C$DW$5, DW_AT_external
      36                            .dwattr $C$DW$5, DW_AT_decl_file("C:/TI_CodeComposer/ccsv6/tools/compiler/arm_5.1.7/include/st
      37                            .dwattr $C$DW$5, DW_AT_decl_line(0x63)
      38                            .dwattr $C$DW$5, DW_AT_decl_column(0x16)
      39                    $C$DW$6 .dwtag  DW_TAG_formal_parameter
      40                            .dwattr $C$DW$6, DW_AT_type(*$C$DW$T$3)
      41                    $C$DW$7 .dwtag  DW_TAG_formal_parameter
      42                            .dwattr $C$DW$7, DW_AT_type(*$C$DW$T$10)
      43                    $C$DW$8 .dwtag  DW_TAG_formal_parameter
      44                            .dwattr $C$DW$8, DW_AT_type(*$C$DW$T$60)
      45                            .dwendtag $C$DW$5
      46                    
      47                    
      48                    $C$DW$9 .dwtag  DW_TAG_subprogram, DW_AT_name("vPortYieldFromISR")
      49                            .dwattr $C$DW$9, DW_AT_TI_symbol_name("vPortYieldFromISR")
      50                            .dwattr $C$DW$9, DW_AT_declaration
      51                            .dwattr $C$DW$9, DW_AT_external
      52                            .dwattr $C$DW$9, DW_AT_decl_file("H:\EECS_388\TI_ARM_Projects\FreeRTOS_LM3S1968\Source\include
      53                            .dwattr $C$DW$9, DW_AT_decl_line(0x76)
      54                            .dwattr $C$DW$9, DW_AT_decl_column(0x0d)
      55                    
TI ARM Assembler PC v5.1.7 Thu Oct 02 08:28:40 2014

Tools Copyright (c) 1996-2014 Texas Instruments Incorporated
tasks.asm                                                            PAGE    2

      56                    $C$DW$10        .dwtag  DW_TAG_subprogram, DW_AT_name("vPortEnterCritical")
      57                            .dwattr $C$DW$10, DW_AT_TI_symbol_name("vPortEnterCritical")
      58                            .dwattr $C$DW$10, DW_AT_declaration
      59                            .dwattr $C$DW$10, DW_AT_external
      60                            .dwattr $C$DW$10, DW_AT_decl_file("H:\EECS_388\TI_ARM_Projects\FreeRTOS_LM3S1968\Source\includ
      61                            .dwattr $C$DW$10, DW_AT_decl_line(0x90)
      62                            .dwattr $C$DW$10, DW_AT_decl_column(0x0d)
      63                    
      64                    $C$DW$11        .dwtag  DW_TAG_subprogram, DW_AT_name("vPortExitCritical")
      65                            .dwattr $C$DW$11, DW_AT_TI_symbol_name("vPortExitCritical")
      66                            .dwattr $C$DW$11, DW_AT_declaration
      67                            .dwattr $C$DW$11, DW_AT_external
      68                            .dwattr $C$DW$11, DW_AT_decl_file("H:\EECS_388\TI_ARM_Projects\FreeRTOS_LM3S1968\Source\includ
      69                            .dwattr $C$DW$11, DW_AT_decl_line(0x91)
      70                            .dwattr $C$DW$11, DW_AT_decl_column(0x0d)
      71                    
      72                    $C$DW$12        .dwtag  DW_TAG_subprogram, DW_AT_name("ulPortSetInterruptMask")
      73                            .dwattr $C$DW$12, DW_AT_TI_symbol_name("ulPortSetInterruptMask")
      74                            .dwattr $C$DW$12, DW_AT_type(*$C$DW$T$13)
      75                            .dwattr $C$DW$12, DW_AT_declaration
      76                            .dwattr $C$DW$12, DW_AT_external
      77                            .dwattr $C$DW$12, DW_AT_decl_file("H:\EECS_388\TI_ARM_Projects\FreeRTOS_LM3S1968\Source\includ
      78                            .dwattr $C$DW$12, DW_AT_decl_line(0x92)
      79                            .dwattr $C$DW$12, DW_AT_decl_column(0x16)
      80                    
      81                    $C$DW$13        .dwtag  DW_TAG_subprogram, DW_AT_name("vPortClearInterruptMask")
      82                            .dwattr $C$DW$13, DW_AT_TI_symbol_name("vPortClearInterruptMask")
      83                            .dwattr $C$DW$13, DW_AT_declaration
      84                            .dwattr $C$DW$13, DW_AT_external
      85                            .dwattr $C$DW$13, DW_AT_decl_file("H:\EECS_388\TI_ARM_Projects\FreeRTOS_LM3S1968\Source\includ
      86                            .dwattr $C$DW$13, DW_AT_decl_line(0x93)
      87                            .dwattr $C$DW$13, DW_AT_decl_column(0x0d)
      88                    $C$DW$14        .dwtag  DW_TAG_formal_parameter
      89                            .dwattr $C$DW$14, DW_AT_type(*$C$DW$T$13)
      90                            .dwendtag $C$DW$13
      91                    
      92                    
      93                    $C$DW$15        .dwtag  DW_TAG_subprogram, DW_AT_name("pxPortInitialiseStack")
      94                            .dwattr $C$DW$15, DW_AT_TI_symbol_name("pxPortInitialiseStack")
      95                            .dwattr $C$DW$15, DW_AT_type(*$C$DW$T$28)
      96                            .dwattr $C$DW$15, DW_AT_declaration
      97                            .dwattr $C$DW$15, DW_AT_external
      98                            .dwattr $C$DW$15, DW_AT_decl_file("H:\EECS_388\TI_ARM_Projects\FreeRTOS_LM3S1968\Source\includ
      99                            .dwattr $C$DW$15, DW_AT_decl_line(0x176)
     100                            .dwattr $C$DW$15, DW_AT_decl_column(0x12)
     101                    $C$DW$16        .dwtag  DW_TAG_formal_parameter
     102                            .dwattr $C$DW$16, DW_AT_type(*$C$DW$T$28)
     103                    $C$DW$17        .dwtag  DW_TAG_formal_parameter
     104                            .dwattr $C$DW$17, DW_AT_type(*$C$DW$T$44)
     105                    $C$DW$18        .dwtag  DW_TAG_formal_parameter
     106                            .dwattr $C$DW$18, DW_AT_type(*$C$DW$T$3)
     107                            .dwendtag $C$DW$15
     108                    
     109                    
     110                    $C$DW$19        .dwtag  DW_TAG_subprogram, DW_AT_name("pvPortMalloc")
TI ARM Assembler PC v5.1.7 Thu Oct 02 08:28:40 2014

Tools Copyright (c) 1996-2014 Texas Instruments Incorporated
tasks.asm                                                            PAGE    3

     111                            .dwattr $C$DW$19, DW_AT_TI_symbol_name("pvPortMalloc")
     112                            .dwattr $C$DW$19, DW_AT_type(*$C$DW$T$3)
     113                            .dwattr $C$DW$19, DW_AT_declaration
     114                            .dwattr $C$DW$19, DW_AT_external
     115                            .dwattr $C$DW$19, DW_AT_decl_file("H:\EECS_388\TI_ARM_Projects\FreeRTOS_LM3S1968\Source\includ
     116                            .dwattr $C$DW$19, DW_AT_decl_line(0x17c)
     117                            .dwattr $C$DW$19, DW_AT_decl_column(0x07)
     118                    $C$DW$20        .dwtag  DW_TAG_formal_parameter
     119                            .dwattr $C$DW$20, DW_AT_type(*$C$DW$T$60)
     120                            .dwendtag $C$DW$19
     121                    
     122                    
     123                    $C$DW$21        .dwtag  DW_TAG_subprogram, DW_AT_name("vPortFree")
     124                            .dwattr $C$DW$21, DW_AT_TI_symbol_name("vPortFree")
     125                            .dwattr $C$DW$21, DW_AT_declaration
     126                            .dwattr $C$DW$21, DW_AT_external
     127                            .dwattr $C$DW$21, DW_AT_decl_file("H:\EECS_388\TI_ARM_Projects\FreeRTOS_LM3S1968\Source\includ
     128                            .dwattr $C$DW$21, DW_AT_decl_line(0x17d)
     129                            .dwattr $C$DW$21, DW_AT_decl_column(0x06)
     130                    $C$DW$22        .dwtag  DW_TAG_formal_parameter
     131                            .dwattr $C$DW$22, DW_AT_type(*$C$DW$T$3)
     132                            .dwendtag $C$DW$21
     133                    
     134                    
     135                    $C$DW$23        .dwtag  DW_TAG_subprogram, DW_AT_name("xPortStartScheduler")
     136                            .dwattr $C$DW$23, DW_AT_TI_symbol_name("xPortStartScheduler")
     137                            .dwattr $C$DW$23, DW_AT_type(*$C$DW$T$12)
     138                            .dwattr $C$DW$23, DW_AT_declaration
     139                            .dwattr $C$DW$23, DW_AT_external
     140                            .dwattr $C$DW$23, DW_AT_decl_file("H:\EECS_388\TI_ARM_Projects\FreeRTOS_LM3S1968\Source\includ
     141                            .dwattr $C$DW$23, DW_AT_decl_line(0x185)
     142                            .dwattr $C$DW$23, DW_AT_decl_column(0x0f)
     143                    
     144                    $C$DW$24        .dwtag  DW_TAG_subprogram, DW_AT_name("vPortEndScheduler")
     145                            .dwattr $C$DW$24, DW_AT_TI_symbol_name("vPortEndScheduler")
     146                            .dwattr $C$DW$24, DW_AT_declaration
     147                            .dwattr $C$DW$24, DW_AT_external
     148                            .dwattr $C$DW$24, DW_AT_decl_file("H:\EECS_388\TI_ARM_Projects\FreeRTOS_LM3S1968\Source\includ
     149                            .dwattr $C$DW$24, DW_AT_decl_line(0x18c)
     150                            .dwattr $C$DW$24, DW_AT_decl_column(0x06)
     151                    
     152                    $C$DW$25        .dwtag  DW_TAG_subprogram, DW_AT_name("vListInitialise")
     153                            .dwattr $C$DW$25, DW_AT_TI_symbol_name("vListInitialise")
     154                            .dwattr $C$DW$25, DW_AT_declaration
     155                            .dwattr $C$DW$25, DW_AT_external
     156                            .dwattr $C$DW$25, DW_AT_decl_file("H:\EECS_388\TI_ARM_Projects\FreeRTOS_LM3S1968\Source\includ
     157                            .dwattr $C$DW$25, DW_AT_decl_line(0x121)
     158                            .dwattr $C$DW$25, DW_AT_decl_column(0x06)
     159                    $C$DW$26        .dwtag  DW_TAG_formal_parameter
     160                            .dwattr $C$DW$26, DW_AT_type(*$C$DW$T$75)
     161                            .dwendtag $C$DW$25
     162                    
     163                    
     164                    $C$DW$27        .dwtag  DW_TAG_subprogram, DW_AT_name("vListInitialiseItem")
     165                            .dwattr $C$DW$27, DW_AT_TI_symbol_name("vListInitialiseItem")
TI ARM Assembler PC v5.1.7 Thu Oct 02 08:28:40 2014

Tools Copyright (c) 1996-2014 Texas Instruments Incorporated
tasks.asm                                                            PAGE    4

     166                            .dwattr $C$DW$27, DW_AT_declaration
     167                            .dwattr $C$DW$27, DW_AT_external
     168                            .dwattr $C$DW$27, DW_AT_decl_file("H:\EECS_388\TI_ARM_Projects\FreeRTOS_LM3S1968\Source\includ
     169                            .dwattr $C$DW$27, DW_AT_decl_line(0x12c)
     170                            .dwattr $C$DW$27, DW_AT_decl_column(0x06)
     171                    $C$DW$28        .dwtag  DW_TAG_formal_parameter
     172                            .dwattr $C$DW$28, DW_AT_type(*$C$DW$T$78)
     173                            .dwendtag $C$DW$27
     174                    
     175                    
     176                    $C$DW$29        .dwtag  DW_TAG_subprogram, DW_AT_name("vListInsert")
     177                            .dwattr $C$DW$29, DW_AT_TI_symbol_name("vListInsert")
     178                            .dwattr $C$DW$29, DW_AT_declaration
     179                            .dwattr $C$DW$29, DW_AT_external
     180                            .dwattr $C$DW$29, DW_AT_decl_file("H:\EECS_388\TI_ARM_Projects\FreeRTOS_LM3S1968\Source\includ
     181                            .dwattr $C$DW$29, DW_AT_decl_line(0x139)
     182                            .dwattr $C$DW$29, DW_AT_decl_column(0x06)
     183                    $C$DW$30        .dwtag  DW_TAG_formal_parameter
     184                            .dwattr $C$DW$30, DW_AT_type(*$C$DW$T$75)
     185                    $C$DW$31        .dwtag  DW_TAG_formal_parameter
     186                            .dwattr $C$DW$31, DW_AT_type(*$C$DW$T$78)
     187                            .dwendtag $C$DW$29
     188                    
     189                    
     190                    $C$DW$32        .dwtag  DW_TAG_subprogram, DW_AT_name("vListInsertEnd")
     191                            .dwattr $C$DW$32, DW_AT_TI_symbol_name("vListInsertEnd")
     192                            .dwattr $C$DW$32, DW_AT_declaration
     193                            .dwattr $C$DW$32, DW_AT_external
     194                            .dwattr $C$DW$32, DW_AT_decl_file("H:\EECS_388\TI_ARM_Projects\FreeRTOS_LM3S1968\Source\includ
     195                            .dwattr $C$DW$32, DW_AT_decl_line(0x14e)
     196                            .dwattr $C$DW$32, DW_AT_decl_column(0x06)
     197                    $C$DW$33        .dwtag  DW_TAG_formal_parameter
     198                            .dwattr $C$DW$33, DW_AT_type(*$C$DW$T$75)
     199                    $C$DW$34        .dwtag  DW_TAG_formal_parameter
     200                            .dwattr $C$DW$34, DW_AT_type(*$C$DW$T$78)
     201                            .dwendtag $C$DW$32
     202                    
     203                    
     204                    $C$DW$35        .dwtag  DW_TAG_subprogram, DW_AT_name("uxListRemove")
     205                            .dwattr $C$DW$35, DW_AT_TI_symbol_name("uxListRemove")
     206                            .dwattr $C$DW$35, DW_AT_type(*$C$DW$T$13)
     207                            .dwattr $C$DW$35, DW_AT_declaration
     208                            .dwattr $C$DW$35, DW_AT_external
     209                            .dwattr $C$DW$35, DW_AT_decl_file("H:\EECS_388\TI_ARM_Projects\FreeRTOS_LM3S1968\Source\includ
     210                            .dwattr $C$DW$35, DW_AT_decl_line(0x15d)
     211                            .dwattr $C$DW$35, DW_AT_decl_column(0x18)
     212                    $C$DW$36        .dwtag  DW_TAG_formal_parameter
     213                            .dwattr $C$DW$36, DW_AT_type(*$C$DW$T$78)
     214                            .dwendtag $C$DW$35
     215                    
     216                            .global pxCurrentTCB
     217 00000000                   .data
     218                            .align  4
     219                            .elfsym pxCurrentTCB,SYM_SIZE(4)
     220 00000000           pxCurrentTCB:
TI ARM Assembler PC v5.1.7 Thu Oct 02 08:28:40 2014

Tools Copyright (c) 1996-2014 Texas Instruments Incorporated
tasks.asm                                                            PAGE    5

     221 00000000 00000000          .bits   0,32                    ; pxCurrentTCB @ 0
     222                    
     223                    $C$DW$37        .dwtag  DW_TAG_variable, DW_AT_name("pxCurrentTCB")
     224                            .dwattr $C$DW$37, DW_AT_TI_symbol_name("pxCurrentTCB")
     225                            .dwattr $C$DW$37, DW_AT_location[DW_OP_addr pxCurrentTCB]
     226                            .dwattr $C$DW$37, DW_AT_type(*$C$DW$T$143)
     227                            .dwattr $C$DW$37, DW_AT_external
     228                            .dwattr $C$DW$37, DW_AT_decl_file("../Source/tasks.c")
     229                            .dwattr $C$DW$37, DW_AT_decl_line(0xa1)
     230                            .dwattr $C$DW$37, DW_AT_decl_column(0x23)
     231 00000000           pxReadyTasksLists:      .usect  ".bss:pxReadyTasksLists",40,4
     232                    $C$DW$38        .dwtag  DW_TAG_variable, DW_AT_name("pxReadyTasksLists")
     233                            .dwattr $C$DW$38, DW_AT_TI_symbol_name("pxReadyTasksLists")
     234                            .dwattr $C$DW$38, DW_AT_type(*$C$DW$T$146)
     235                            .dwattr $C$DW$38, DW_AT_location[DW_OP_addr pxReadyTasksLists]
     236                            .dwattr $C$DW$38, DW_AT_decl_file("../Source/tasks.c")
     237                            .dwattr $C$DW$38, DW_AT_decl_line(0xa4)
     238                            .dwattr $C$DW$38, DW_AT_decl_column(0x1e)
     239                            .common xDelayedTaskList1,20,4
     240                    $C$DW$39        .dwtag  DW_TAG_variable, DW_AT_name("xDelayedTaskList1")
     241                            .dwattr $C$DW$39, DW_AT_TI_symbol_name("xDelayedTaskList1")
     242                            .dwattr $C$DW$39, DW_AT_type(*$C$DW$T$74)
     243                            .dwattr $C$DW$39, DW_AT_location[DW_OP_addr xDelayedTaskList1]
     244                            .dwattr $C$DW$39, DW_AT_decl_file("../Source/tasks.c")
     245                            .dwattr $C$DW$39, DW_AT_decl_line(0xa5)
     246                            .dwattr $C$DW$39, DW_AT_decl_column(0x1e)
     247                            .common xDelayedTaskList2,20,4
     248                    $C$DW$40        .dwtag  DW_TAG_variable, DW_AT_name("xDelayedTaskList2")
     249                            .dwattr $C$DW$40, DW_AT_TI_symbol_name("xDelayedTaskList2")
     250                            .dwattr $C$DW$40, DW_AT_type(*$C$DW$T$74)
     251                            .dwattr $C$DW$40, DW_AT_location[DW_OP_addr xDelayedTaskList2]
     252                            .dwattr $C$DW$40, DW_AT_decl_file("../Source/tasks.c")
     253                            .dwattr $C$DW$40, DW_AT_decl_line(0xa6)
     254                            .dwattr $C$DW$40, DW_AT_decl_column(0x1e)
     255                            .common pxDelayedTaskList,4,4
     256                    $C$DW$41        .dwtag  DW_TAG_variable, DW_AT_name("pxDelayedTaskList")
     257                            .dwattr $C$DW$41, DW_AT_TI_symbol_name("pxDelayedTaskList")
     258                            .dwattr $C$DW$41, DW_AT_type(*$C$DW$T$144)
     259                            .dwattr $C$DW$41, DW_AT_location[DW_OP_addr pxDelayedTaskList]
     260                            .dwattr $C$DW$41, DW_AT_decl_file("../Source/tasks.c")
     261                            .dwattr $C$DW$41, DW_AT_decl_line(0xa7)
     262                            .dwattr $C$DW$41, DW_AT_decl_column(0x29)
     263                            .common pxOverflowDelayedTaskList,4,4
     264                    $C$DW$42        .dwtag  DW_TAG_variable, DW_AT_name("pxOverflowDelayedTaskList")
     265                            .dwattr $C$DW$42, DW_AT_TI_symbol_name("pxOverflowDelayedTaskList")
     266                            .dwattr $C$DW$42, DW_AT_type(*$C$DW$T$144)
     267                            .dwattr $C$DW$42, DW_AT_location[DW_OP_addr pxOverflowDelayedTaskList]
     268                            .dwattr $C$DW$42, DW_AT_decl_file("../Source/tasks.c")
     269                            .dwattr $C$DW$42, DW_AT_decl_line(0xa8)
     270                            .dwattr $C$DW$42, DW_AT_decl_column(0x29)
     271                            .common xPendingReadyList,20,4
     272                    $C$DW$43        .dwtag  DW_TAG_variable, DW_AT_name("xPendingReadyList")
     273                            .dwattr $C$DW$43, DW_AT_TI_symbol_name("xPendingReadyList")
     274                            .dwattr $C$DW$43, DW_AT_type(*$C$DW$T$74)
     275                            .dwattr $C$DW$43, DW_AT_location[DW_OP_addr xPendingReadyList]
TI ARM Assembler PC v5.1.7 Thu Oct 02 08:28:40 2014

Tools Copyright (c) 1996-2014 Texas Instruments Incorporated
tasks.asm                                                            PAGE    6

     276                            .dwattr $C$DW$43, DW_AT_decl_file("../Source/tasks.c")
     277                            .dwattr $C$DW$43, DW_AT_decl_line(0xa9)
     278                            .dwattr $C$DW$43, DW_AT_decl_column(0x1e)
     279 00000004                   .data
     280                            .align  4
     281                            .elfsym uxCurrentNumberOfTasks,SYM_SIZE(4)
     282 00000004           uxCurrentNumberOfTasks:
     283 00000004 00000000          .bits   0,32                    ; uxCurrentNumberOfTasks @ 0
     284                    
     285                    $C$DW$44        .dwtag  DW_TAG_variable, DW_AT_name("uxCurrentNumberOfTasks")
     286                            .dwattr $C$DW$44, DW_AT_TI_symbol_name("uxCurrentNumberOfTasks")
     287                            .dwattr $C$DW$44, DW_AT_type(*$C$DW$T$25)
     288                            .dwattr $C$DW$44, DW_AT_location[DW_OP_addr uxCurrentNumberOfTasks]
     289                            .dwattr $C$DW$44, DW_AT_decl_file("../Source/tasks.c")
     290                            .dwattr $C$DW$44, DW_AT_decl_line(0xbf)
     291                            .dwattr $C$DW$44, DW_AT_decl_column(0x38)
     292 00000008                   .data
     293                            .align  4
     294                            .elfsym xTickCount,SYM_SIZE(4)
     295 00000008           xTickCount:
     296 00000008 00000000          .bits   0,32                    ; xTickCount @ 0
     297                    
     298                    $C$DW$45        .dwtag  DW_TAG_variable, DW_AT_name("xTickCount")
     299                            .dwattr $C$DW$45, DW_AT_TI_symbol_name("xTickCount")
     300                            .dwattr $C$DW$45, DW_AT_type(*$C$DW$T$133)
     301                            .dwattr $C$DW$45, DW_AT_location[DW_OP_addr xTickCount]
     302                            .dwattr $C$DW$45, DW_AT_decl_file("../Source/tasks.c")
     303                            .dwattr $C$DW$45, DW_AT_decl_line(0xc0)
     304                            .dwattr $C$DW$45, DW_AT_decl_column(0x2e)
     305 0000000c                   .data
     306                            .align  4
     307                            .elfsym uxTopUsedPriority,SYM_SIZE(4)
     308 0000000c           uxTopUsedPriority:
     309 0000000c 00000000          .bits   0,32                    ; uxTopUsedPriority @ 0
     310                    
     311                    $C$DW$46        .dwtag  DW_TAG_variable, DW_AT_name("uxTopUsedPriority")
     312                            .dwattr $C$DW$46, DW_AT_TI_symbol_name("uxTopUsedPriority")
     313                            .dwattr $C$DW$46, DW_AT_type(*$C$DW$T$13)
     314                            .dwattr $C$DW$46, DW_AT_location[DW_OP_addr uxTopUsedPriority]
     315                            .dwattr $C$DW$46, DW_AT_decl_file("../Source/tasks.c")
     316                            .dwattr $C$DW$46, DW_AT_decl_line(0xc1)
     317                            .dwattr $C$DW$46, DW_AT_decl_column(0x2f)
     318 00000010                   .data
     319                            .align  4
     320                            .elfsym uxTopReadyPriority,SYM_SIZE(4)
     321 00000010           uxTopReadyPriority:
     322 00000010 00000000          .bits   0,32                    ; uxTopReadyPriority @ 0
     323                    
     324                    $C$DW$47        .dwtag  DW_TAG_variable, DW_AT_name("uxTopReadyPriority")
     325                            .dwattr $C$DW$47, DW_AT_TI_symbol_name("uxTopReadyPriority")
     326                            .dwattr $C$DW$47, DW_AT_type(*$C$DW$T$25)
     327                            .dwattr $C$DW$47, DW_AT_location[DW_OP_addr uxTopReadyPriority]
     328                            .dwattr $C$DW$47, DW_AT_decl_file("../Source/tasks.c")
     329                            .dwattr $C$DW$47, DW_AT_decl_line(0xc2)
     330                            .dwattr $C$DW$47, DW_AT_decl_column(0x38)
TI ARM Assembler PC v5.1.7 Thu Oct 02 08:28:40 2014

Tools Copyright (c) 1996-2014 Texas Instruments Incorporated
tasks.asm                                                            PAGE    7

     331 00000014                   .data
     332                            .align  4
     333                            .elfsym xSchedulerRunning,SYM_SIZE(4)
     334 00000014           xSchedulerRunning:
     335 00000014 00000000          .bits   0,32                    ; xSchedulerRunning @ 0
     336                    
     337                    $C$DW$48        .dwtag  DW_TAG_variable, DW_AT_name("xSchedulerRunning")
     338                            .dwattr $C$DW$48, DW_AT_TI_symbol_name("xSchedulerRunning")
     339                            .dwattr $C$DW$48, DW_AT_type(*$C$DW$T$121)
     340                            .dwattr $C$DW$48, DW_AT_location[DW_OP_addr xSchedulerRunning]
     341                            .dwattr $C$DW$48, DW_AT_decl_file("../Source/tasks.c")
     342                            .dwattr $C$DW$48, DW_AT_decl_line(0xc3)
     343                            .dwattr $C$DW$48, DW_AT_decl_column(0x36)
     344 00000018                   .data
     345                            .align  4
     346                            .elfsym uxSchedulerSuspended,SYM_SIZE(4)
     347 00000018           uxSchedulerSuspended:
     348 00000018 00000000          .bits   0,32                    ; uxSchedulerSuspended @ 0
     349                    
     350                    $C$DW$49        .dwtag  DW_TAG_variable, DW_AT_name("uxSchedulerSuspended")
     351                            .dwattr $C$DW$49, DW_AT_TI_symbol_name("uxSchedulerSuspended")
     352                            .dwattr $C$DW$49, DW_AT_type(*$C$DW$T$25)
     353                            .dwattr $C$DW$49, DW_AT_location[DW_OP_addr uxSchedulerSuspended]
     354                            .dwattr $C$DW$49, DW_AT_decl_file("../Source/tasks.c")
     355                            .dwattr $C$DW$49, DW_AT_decl_line(0xc4)
     356                            .dwattr $C$DW$49, DW_AT_decl_column(0x38)
     357 0000001c                   .data
     358                            .align  4
     359                            .elfsym uxMissedTicks,SYM_SIZE(4)
     360 0000001c           uxMissedTicks:
     361 0000001c 00000000          .bits   0,32                    ; uxMissedTicks @ 0
     362                    
     363                    $C$DW$50        .dwtag  DW_TAG_variable, DW_AT_name("uxMissedTicks")
     364                            .dwattr $C$DW$50, DW_AT_TI_symbol_name("uxMissedTicks")
     365                            .dwattr $C$DW$50, DW_AT_type(*$C$DW$T$25)
     366                            .dwattr $C$DW$50, DW_AT_location[DW_OP_addr uxMissedTicks]
     367                            .dwattr $C$DW$50, DW_AT_decl_file("../Source/tasks.c")
     368                            .dwattr $C$DW$50, DW_AT_decl_line(0xc5)
     369                            .dwattr $C$DW$50, DW_AT_decl_column(0x38)
     370 00000020                   .data
     371                            .align  4
     372                            .elfsym xMissedYield,SYM_SIZE(4)
     373 00000020           xMissedYield:
     374 00000020 00000000          .bits   0,32                    ; xMissedYield @ 0
     375                    
     376                    $C$DW$51        .dwtag  DW_TAG_variable, DW_AT_name("xMissedYield")
     377                            .dwattr $C$DW$51, DW_AT_TI_symbol_name("xMissedYield")
     378                            .dwattr $C$DW$51, DW_AT_type(*$C$DW$T$121)
     379                            .dwattr $C$DW$51, DW_AT_location[DW_OP_addr xMissedYield]
     380                            .dwattr $C$DW$51, DW_AT_decl_file("../Source/tasks.c")
     381                            .dwattr $C$DW$51, DW_AT_decl_line(0xc6)
     382                            .dwattr $C$DW$51, DW_AT_decl_column(0x2f)
     383 00000024                   .data
     384                            .align  4
     385                            .elfsym xNumOfOverflows,SYM_SIZE(4)
TI ARM Assembler PC v5.1.7 Thu Oct 02 08:28:40 2014

Tools Copyright (c) 1996-2014 Texas Instruments Incorporated
tasks.asm                                                            PAGE    8

     386 00000024           xNumOfOverflows:
     387 00000024 00000000          .bits   0,32                    ; xNumOfOverflows @ 0
     388                    
     389                    $C$DW$52        .dwtag  DW_TAG_variable, DW_AT_name("xNumOfOverflows")
     390                            .dwattr $C$DW$52, DW_AT_TI_symbol_name("xNumOfOverflows")
     391                            .dwattr $C$DW$52, DW_AT_type(*$C$DW$T$121)
     392                            .dwattr $C$DW$52, DW_AT_location[DW_OP_addr xNumOfOverflows]
     393                            .dwattr $C$DW$52, DW_AT_decl_file("../Source/tasks.c")
     394                            .dwattr $C$DW$52, DW_AT_decl_line(0xc7)
     395                            .dwattr $C$DW$52, DW_AT_decl_column(0x2f)
     396 00000028                   .data
     397                            .align  4
     398                            .elfsym uxTaskNumber,SYM_SIZE(4)
     399 00000028           uxTaskNumber:
     400 00000028 00000000          .bits   0,32                    ; uxTaskNumber @ 0
     401                    
     402                    $C$DW$53        .dwtag  DW_TAG_variable, DW_AT_name("uxTaskNumber")
     403                            .dwattr $C$DW$53, DW_AT_TI_symbol_name("uxTaskNumber")
     404                            .dwattr $C$DW$53, DW_AT_type(*$C$DW$T$13)
     405                            .dwattr $C$DW$53, DW_AT_location[DW_OP_addr uxTaskNumber]
     406                            .dwattr $C$DW$53, DW_AT_decl_file("../Source/tasks.c")
     407                            .dwattr $C$DW$53, DW_AT_decl_line(0xc8)
     408                            .dwattr $C$DW$53, DW_AT_decl_column(0x2f)
     409 0000002c                   .data
     410                            .align  4
     411                            .elfsym xNextTaskUnblockTime,SYM_SIZE(4)
     412 0000002c           xNextTaskUnblockTime:
     413 0000002c FFFFFFFF          .bits   -1,32                   ; xNextTaskUnblockTime @ 0
     414                    
     415                    $C$DW$54        .dwtag  DW_TAG_variable, DW_AT_name("xNextTaskUnblockTime")
     416                            .dwattr $C$DW$54, DW_AT_TI_symbol_name("xNextTaskUnblockTime")
     417                            .dwattr $C$DW$54, DW_AT_type(*$C$DW$T$133)
     418                            .dwattr $C$DW$54, DW_AT_location[DW_OP_addr xNextTaskUnblockTime]
     419                            .dwattr $C$DW$54, DW_AT_decl_file("../Source/tasks.c")
     420                            .dwattr $C$DW$54, DW_AT_decl_line(0xc9)
     421                            .dwattr $C$DW$54, DW_AT_decl_column(0x2e)
     422                    ;       C:\TI_CodeComposer\ccsv6\tools\compiler\arm_5.1.7\bin\armacpia.exe -@C:\\Users\\cratnapa\\AppD
     423 00000000                   .sect   ".text"
     424                            .clink
     425                            .thumbfunc xTaskGenericCreate
     426 00000000                   .thumb
     427                            .global xTaskGenericCreate
     428                    
     429                    $C$DW$55        .dwtag  DW_TAG_subprogram, DW_AT_name("xTaskGenericCreate")
     430                            .dwattr $C$DW$55, DW_AT_low_pc(xTaskGenericCreate)
     431                            .dwattr $C$DW$55, DW_AT_high_pc(0x00)
     432                            .dwattr $C$DW$55, DW_AT_TI_symbol_name("xTaskGenericCreate")
     433                            .dwattr $C$DW$55, DW_AT_external
     434                            .dwattr $C$DW$55, DW_AT_type(*$C$DW$T$12)
     435                            .dwattr $C$DW$55, DW_AT_TI_begin_file("../Source/tasks.c")
     436                            .dwattr $C$DW$55, DW_AT_TI_begin_line(0x1ee)
     437                            .dwattr $C$DW$55, DW_AT_TI_begin_column(0x16)
     438                            .dwattr $C$DW$55, DW_AT_decl_file("../Source/tasks.c")
     439                            .dwattr $C$DW$55, DW_AT_decl_line(0x1ee)
     440                            .dwattr $C$DW$55, DW_AT_decl_column(0x16)
TI ARM Assembler PC v5.1.7 Thu Oct 02 08:28:40 2014

Tools Copyright (c) 1996-2014 Texas Instruments Incorporated
tasks.asm                                                            PAGE    9

     441                            .dwattr $C$DW$55, DW_AT_TI_max_frame_size(0x28)
     442                            .dwpsn  file "../Source/tasks.c",line 495,column 1,is_stmt,address xTaskGenericCreate,isa 1
     443                    
     444                            .dwfde $C$DW$CIE, xTaskGenericCreate
     445                    $C$DW$56        .dwtag  DW_TAG_formal_parameter, DW_AT_name("pxTaskCode")
     446                            .dwattr $C$DW$56, DW_AT_TI_symbol_name("pxTaskCode")
     447                            .dwattr $C$DW$56, DW_AT_type(*$C$DW$T$44)
     448                            .dwattr $C$DW$56, DW_AT_location[DW_OP_reg0]
     449                    $C$DW$57        .dwtag  DW_TAG_formal_parameter, DW_AT_name("pcName")
     450                            .dwattr $C$DW$57, DW_AT_TI_symbol_name("pcName")
     451                            .dwattr $C$DW$57, DW_AT_type(*$C$DW$T$47)
     452                            .dwattr $C$DW$57, DW_AT_location[DW_OP_reg1]
     453                    $C$DW$58        .dwtag  DW_TAG_formal_parameter, DW_AT_name("usStackDepth")
     454                            .dwattr $C$DW$58, DW_AT_TI_symbol_name("usStackDepth")
     455                            .dwattr $C$DW$58, DW_AT_type(*$C$DW$T$9)
     456                            .dwattr $C$DW$58, DW_AT_location[DW_OP_reg2]
     457                    $C$DW$59        .dwtag  DW_TAG_formal_parameter, DW_AT_name("pvParameters")
     458                            .dwattr $C$DW$59, DW_AT_TI_symbol_name("pvParameters")
     459                            .dwattr $C$DW$59, DW_AT_type(*$C$DW$T$3)
     460                            .dwattr $C$DW$59, DW_AT_location[DW_OP_reg3]
     461                    $C$DW$60        .dwtag  DW_TAG_formal_parameter, DW_AT_name("uxPriority")
     462                            .dwattr $C$DW$60, DW_AT_TI_symbol_name("uxPriority")
     463                            .dwattr $C$DW$60, DW_AT_type(*$C$DW$T$13)
     464                            .dwattr $C$DW$60, DW_AT_location[DW_OP_breg13 40]
     465                    $C$DW$61        .dwtag  DW_TAG_formal_parameter, DW_AT_name("pxCreatedTask")
     466                            .dwattr $C$DW$61, DW_AT_TI_symbol_name("pxCreatedTask")
     467                            .dwattr $C$DW$61, DW_AT_type(*$C$DW$T$67)
     468                            .dwattr $C$DW$61, DW_AT_location[DW_OP_breg13 44]
     469                    $C$DW$62        .dwtag  DW_TAG_formal_parameter, DW_AT_name("puxStackBuffer")
     470                            .dwattr $C$DW$62, DW_AT_TI_symbol_name("puxStackBuffer")
     471                            .dwattr $C$DW$62, DW_AT_type(*$C$DW$T$28)
     472                            .dwattr $C$DW$62, DW_AT_location[DW_OP_breg13 48]
     473                    $C$DW$63        .dwtag  DW_TAG_formal_parameter, DW_AT_name("xRegions")
     474                            .dwattr $C$DW$63, DW_AT_TI_symbol_name("xRegions")
     475                            .dwattr $C$DW$63, DW_AT_type(*$C$DW$T$101)
     476                            .dwattr $C$DW$63, DW_AT_location[DW_OP_breg13 52]
     477                    
     478                    ;*****************************************************************************
     479                    ;* FUNCTION NAME: xTaskGenericCreate                                         *
     480                    ;*                                                                           *
     481                    ;*   Regs Modified     : A1,A2,A3,A4,V9,SP,LR,SR                             *
     482                    ;*   Regs Used         : A1,A2,A3,A4,V9,SP,LR,SR                             *
     483                    ;*   Local Frame Size  : 4 Args + 28 Auto + 4 Save = 36 byte                 *
     484                    ;*****************************************************************************
     485 00000000           xTaskGenericCreate:
     486                    ;* --------------------------------------------------------------------------*
     487                            .dwcfi  cfa_offset, 0
     488 00000000 B500              PUSH      {LR}                  ; [DPU_3_PIPE]  ; [ORIG 16-BIT INS]
     489                            .dwcfi  cfa_offset, 4
     490                            .dwcfi  save_reg_to_mem, 14, -4
     491 00000002 0D24F1AD          SUB       SP, SP, #36           ; [DPU_3_PIPE]  ; [KEEP 32-BIT INS]
     492                            .dwcfi  cfa_offset, 40
     493                    $C$DW$64        .dwtag  DW_TAG_variable, DW_AT_name("pxTaskCode")
     494                            .dwattr $C$DW$64, DW_AT_TI_symbol_name("pxTaskCode")
     495                            .dwattr $C$DW$64, DW_AT_type(*$C$DW$T$44)
TI ARM Assembler PC v5.1.7 Thu Oct 02 08:28:40 2014

Tools Copyright (c) 1996-2014 Texas Instruments Incorporated
tasks.asm                                                            PAGE   10

     496                            .dwattr $C$DW$64, DW_AT_location[DW_OP_breg13 4]
     497                    $C$DW$65        .dwtag  DW_TAG_variable, DW_AT_name("pcName")
     498                            .dwattr $C$DW$65, DW_AT_TI_symbol_name("pcName")
     499                            .dwattr $C$DW$65, DW_AT_type(*$C$DW$T$47)
     500                            .dwattr $C$DW$65, DW_AT_location[DW_OP_breg13 8]
     501                    $C$DW$66        .dwtag  DW_TAG_variable, DW_AT_name("usStackDepth")
     502                            .dwattr $C$DW$66, DW_AT_TI_symbol_name("usStackDepth")
     503                            .dwattr $C$DW$66, DW_AT_type(*$C$DW$T$9)
     504                            .dwattr $C$DW$66, DW_AT_location[DW_OP_breg13 12]
     505                    $C$DW$67        .dwtag  DW_TAG_variable, DW_AT_name("pvParameters")
     506                            .dwattr $C$DW$67, DW_AT_TI_symbol_name("pvParameters")
     507                            .dwattr $C$DW$67, DW_AT_type(*$C$DW$T$3)
     508                            .dwattr $C$DW$67, DW_AT_location[DW_OP_breg13 16]
     509                    $C$DW$68        .dwtag  DW_TAG_variable, DW_AT_name("xReturn")
     510                            .dwattr $C$DW$68, DW_AT_TI_symbol_name("xReturn")
     511                            .dwattr $C$DW$68, DW_AT_type(*$C$DW$T$12)
     512                            .dwattr $C$DW$68, DW_AT_location[DW_OP_breg13 20]
     513                    $C$DW$69        .dwtag  DW_TAG_variable, DW_AT_name("pxNewTCB")
     514                            .dwattr $C$DW$69, DW_AT_TI_symbol_name("pxNewTCB")
     515                            .dwattr $C$DW$69, DW_AT_type(*$C$DW$T$98)
     516                            .dwattr $C$DW$69, DW_AT_location[DW_OP_breg13 24]
     517 00000006 9304              STR       A4, [SP, #16]         ; [DPU_3_PIPE] |495|  ; [ORIG 16-BIT INS]
     518 00000008 200CF8AD          STRH      A3, [SP, #12]         ; [DPU_3_PIPE] |495|  ; [KEEP 32-BIT INS]
     519 0000000c 9102              STR       A2, [SP, #8]          ; [DPU_3_PIPE] |495|  ; [ORIG 16-BIT INS]
     520 0000000e 9001              STR       A1, [SP, #4]          ; [DPU_3_PIPE] |495|  ; [ORIG 16-BIT INS]
     521                            .dwpsn  file "../Source/tasks.c",line 504,column 2,is_stmt,isa 1
     522 00000010 990C              LDR       A2, [SP, #48]         ; [DPU_3_PIPE] |504|  ; [ORIG 16-BIT INS]
     523 00000012 000CF8BD          LDRH      A1, [SP, #12]         ; [DPU_3_PIPE] |504|  ; [KEEP 32-BIT INS]
     524                    $C$DW$70        .dwtag  DW_TAG_TI_branch
     525                            .dwattr $C$DW$70, DW_AT_low_pc(0x00)
     526                            .dwattr $C$DW$70, DW_AT_name("prvAllocateTCBAndStack")
     527                            .dwattr $C$DW$70, DW_AT_TI_call
     528 00000016 FB83F000          BL        prvAllocateTCBAndStack ; [DPU_3_PIPE] |504|  ; [KEEP 32-BIT INS]
     529                            ; CALL OCCURS {prvAllocateTCBAndStack }  ; [] |504| 
     530 0000001a 9006              STR       A1, [SP, #24]         ; [DPU_3_PIPE] |504|  ; [ORIG 16-BIT INS]
     531                            .dwpsn  file "../Source/tasks.c",line 506,column 2,is_stmt,isa 1
     532 0000001c 9806              LDR       A1, [SP, #24]         ; [DPU_3_PIPE] |506|  ; [ORIG 16-BIT INS]
     533 0000001e 2800              CMP       A1, #0                ; [DPU_3_PIPE] |506|  ; [ORIG 16-BIT INS]
     534 00000020 D067              BEQ       ||$C$L6||             ; [DPU_3_PIPE] |506|  ; [ORIG 16-BIT INS]
     535                            ; BRANCHCC OCCURS {||$C$L6||}    ; [] |506| 
     536                    ;* --------------------------------------------------------------------------*
     537                    
     538                    $C$DW$71        .dwtag  DW_TAG_lexical_block, DW_AT_low_pc(0x00), DW_AT_high_pc(0x00)
     539                    $C$DW$72        .dwtag  DW_TAG_variable, DW_AT_name("pxTopOfStack")
     540                            .dwattr $C$DW$72, DW_AT_TI_symbol_name("pxTopOfStack")
     541                            .dwattr $C$DW$72, DW_AT_type(*$C$DW$T$28)
     542                            .dwattr $C$DW$72, DW_AT_location[DW_OP_breg13 28]
     543                            .dwpsn  file "../Source/tasks.c",line 530,column 4,is_stmt,isa 1
     544 00000022 9906              LDR       A2, [SP, #24]         ; [DPU_3_PIPE] |530|  ; [ORIG 16-BIT INS]
     545 00000024 000CF8BD          LDRH      A1, [SP, #12]         ; [DPU_3_PIPE] |530|  ; [KEEP 32-BIT INS]
     546 00000028 6B09              LDR       A2, [A2, #48]         ; [DPU_3_PIPE] |530|  ; [ORIG 16-BIT INS]
     547 0000002a 1E40              SUBS      A1, A1, #1            ; [DPU_3_PIPE] |530|  ; [ORIG 16-BIT INS]
     548 0000002c 0180EB01          ADD       A2, A2, A1, LSL #2    ; [DPU_3_PIPE] |530|  ; [KEEP 32-BIT INS]
     549 00000030 9107              STR       A2, [SP, #28]         ; [DPU_3_PIPE] |530|  ; [ORIG 16-BIT INS]
     550                            .dwpsn  file "../Source/tasks.c",line 531,column 4,is_stmt,isa 1
TI ARM Assembler PC v5.1.7 Thu Oct 02 08:28:40 2014

Tools Copyright (c) 1996-2014 Texas Instruments Incorporated
tasks.asm                                                            PAGE   11

     551 00000032 9807              LDR       A1, [SP, #28]         ; [DPU_3_PIPE] |531|  ; [ORIG 16-BIT INS]
     552 00000034 0007F020          BIC       A1, A1, #7            ; [DPU_3_PIPE] |531|  ; [KEEP 32-BIT INS]
     553 00000038 9007              STR       A1, [SP, #28]         ; [DPU_3_PIPE] |531|  ; [ORIG 16-BIT INS]
     554                            .dwpsn  file "../Source/tasks.c",line 551,column 3,is_stmt,isa 1
     555 0000003a 000CF8BD          LDRH      A1, [SP, #12]         ; [DPU_3_PIPE] |551|  ; [KEEP 32-BIT INS]
     556 0000003e 9A0A              LDR       A3, [SP, #40]         ; [DPU_3_PIPE] |551|  ; [ORIG 16-BIT INS]
     557 00000040 9B0D              LDR       A4, [SP, #52]         ; [DPU_3_PIPE] |551|  ; [ORIG 16-BIT INS]
     558 00000042 9000              STR       A1, [SP, #0]          ; [DPU_3_PIPE] |551|  ; [ORIG 16-BIT INS]
     559 00000044 9902              LDR       A2, [SP, #8]          ; [DPU_3_PIPE] |551|  ; [ORIG 16-BIT INS]
     560 00000046 9806              LDR       A1, [SP, #24]         ; [DPU_3_PIPE] |551|  ; [ORIG 16-BIT INS]
     561                    $C$DW$73        .dwtag  DW_TAG_TI_branch
     562                            .dwattr $C$DW$73, DW_AT_low_pc(0x00)
     563                            .dwattr $C$DW$73, DW_AT_name("prvInitialiseTCBVariables")
     564                            .dwattr $C$DW$73, DW_AT_TI_call
     565 00000048 FAEAF000          BL        prvInitialiseTCBVariables ; [DPU_3_PIPE] |551|  ; [KEEP 32-BIT INS]
     566                            ; CALL OCCURS {prvInitialiseTCBVariables }  ; [] |551| 
     567                            .dwpsn  file "../Source/tasks.c",line 563,column 4,is_stmt,isa 1
     568 0000004c 9807              LDR       A1, [SP, #28]         ; [DPU_3_PIPE] |563|  ; [ORIG 16-BIT INS]
     569 0000004e 9901              LDR       A2, [SP, #4]          ; [DPU_3_PIPE] |563|  ; [ORIG 16-BIT INS]
     570 00000050 9A04              LDR       A3, [SP, #16]         ; [DPU_3_PIPE] |563|  ; [ORIG 16-BIT INS]
     571                    $C$DW$74        .dwtag  DW_TAG_TI_branch
     572                            .dwattr $C$DW$74, DW_AT_low_pc(0x00)
     573                            .dwattr $C$DW$74, DW_AT_name("pxPortInitialiseStack")
     574                            .dwattr $C$DW$74, DW_AT_TI_call
     575 00000052 FFFEF7FF!         BL        pxPortInitialiseStack ; [DPU_3_PIPE] |563|  ; [KEEP 32-BIT INS]
     576                            ; CALL OCCURS {pxPortInitialiseStack }  ; [] |563| 
     577 00000056 9906              LDR       A2, [SP, #24]         ; [DPU_3_PIPE] |563|  ; [ORIG 16-BIT INS]
     578 00000058 6008              STR       A1, [A2, #0]          ; [DPU_3_PIPE] |563|  ; [ORIG 16-BIT INS]
     579                            .dwpsn  file "../Source/tasks.c",line 570,column 3,is_stmt,isa 1
     580 0000005a 980B              LDR       A1, [SP, #44]         ; [DPU_3_PIPE] |570|  ; [ORIG 16-BIT INS]
     581 0000005c B110              CBZ       A1, ||$C$L1||         ; []  ; [ORIG 16-BIT INS]
     582                            ; BRANCHCC OCCURS {||$C$L1||}    ; [] |570| 
     583                    ;* --------------------------------------------------------------------------*
     584                            .dwpsn  file "../Source/tasks.c",line 575,column 4,is_stmt,isa 1
     585 0000005e 9806              LDR       A1, [SP, #24]         ; [DPU_3_PIPE] |575|  ; [ORIG 16-BIT INS]
     586 00000060 990B              LDR       A2, [SP, #44]         ; [DPU_3_PIPE] |575|  ; [ORIG 16-BIT INS]
     587 00000062 6008              STR       A1, [A2, #0]          ; [DPU_3_PIPE] |575|  ; [ORIG 16-BIT INS]
     588                    ;* --------------------------------------------------------------------------*
     589 00000064           ||$C$L1||:    
     590                            .dwpsn  file "../Source/tasks.c",line 580,column 3,is_stmt,isa 1
     591                    $C$DW$75        .dwtag  DW_TAG_TI_branch
     592                            .dwattr $C$DW$75, DW_AT_low_pc(0x00)
     593                            .dwattr $C$DW$75, DW_AT_name("vPortEnterCritical")
     594                            .dwattr $C$DW$75, DW_AT_TI_call
     595 00000064 FFFEF7FF!         BL        vPortEnterCritical    ; [DPU_3_PIPE] |580|  ; [KEEP 32-BIT INS]
     596                            ; CALL OCCURS {vPortEnterCritical }  ; [] |580| 
     597                            .dwpsn  file "../Source/tasks.c",line 582,column 4,is_stmt,isa 1
     598 00000068 49A4              LDR       A2, $C$CON1           ; [DPU_3_PIPE] |582|  ; [ORIG 16-BIT INS]
     599 0000006a 6808              LDR       A1, [A2, #0]          ; [DPU_3_PIPE] |582|  ; [ORIG 16-BIT INS]
     600 0000006c 1C40              ADDS      A1, A1, #1            ; [DPU_3_PIPE] |582|  ; [ORIG 16-BIT INS]
     601 0000006e 6008              STR       A1, [A2, #0]          ; [DPU_3_PIPE] |582|  ; [ORIG 16-BIT INS]
     602                            .dwpsn  file "../Source/tasks.c",line 583,column 4,is_stmt,isa 1
     603 00000070 48A3              LDR       A1, $C$CON2           ; [DPU_3_PIPE] |583|  ; [ORIG 16-BIT INS]
     604 00000072 6800              LDR       A1, [A1, #0]          ; [DPU_3_PIPE] |583|  ; [ORIG 16-BIT INS]
     605 00000074 B948              CBNZ      A1, ||$C$L2||         ; []  ; [ORIG 16-BIT INS]
TI ARM Assembler PC v5.1.7 Thu Oct 02 08:28:40 2014

Tools Copyright (c) 1996-2014 Texas Instruments Incorporated
tasks.asm                                                            PAGE   12

     606                            ; BRANCHCC OCCURS {||$C$L2||}    ; [] |583| 
     607                    ;* --------------------------------------------------------------------------*
     608                            .dwpsn  file "../Source/tasks.c",line 587,column 5,is_stmt,isa 1
     609 00000076 9806              LDR       A1, [SP, #24]         ; [DPU_3_PIPE] |587|  ; [ORIG 16-BIT INS]
     610 00000078 49A1              LDR       A2, $C$CON2           ; [DPU_3_PIPE] |587|  ; [ORIG 16-BIT INS]
     611 0000007a 6008              STR       A1, [A2, #0]          ; [DPU_3_PIPE] |587|  ; [ORIG 16-BIT INS]
     612                            .dwpsn  file "../Source/tasks.c",line 589,column 5,is_stmt,isa 1
     613 0000007c 489F              LDR       A1, $C$CON1           ; [DPU_3_PIPE] |589|  ; [ORIG 16-BIT INS]
     614 0000007e 6800              LDR       A1, [A1, #0]          ; [DPU_3_PIPE] |589|  ; [ORIG 16-BIT INS]
     615 00000080 2801              CMP       A1, #1                ; [DPU_3_PIPE] |589|  ; [ORIG 16-BIT INS]
     616 00000082 D10E              BNE       ||$C$L3||             ; [DPU_3_PIPE] |589|  ; [ORIG 16-BIT INS]
     617                            ; BRANCHCC OCCURS {||$C$L3||}    ; [] |589| 
     618                    ;* --------------------------------------------------------------------------*
     619                            .dwpsn  file "../Source/tasks.c",line 594,column 6,is_stmt,isa 1
     620                    $C$DW$76        .dwtag  DW_TAG_TI_branch
     621                            .dwattr $C$DW$76, DW_AT_low_pc(0x00)
     622                            .dwattr $C$DW$76, DW_AT_name("prvInitialiseTaskLists")
     623                            .dwattr $C$DW$76, DW_AT_TI_call
     624 00000084 FAFCF000          BL        prvInitialiseTaskLists ; [DPU_3_PIPE] |594|  ; [KEEP 32-BIT INS]
     625                            ; CALL OCCURS {prvInitialiseTaskLists }  ; [] |594| 
     626                            .dwpsn  file "../Source/tasks.c",line 596,column 4,is_stmt,isa 1
     627 00000088 E00B              B         ||$C$L3||             ; [DPU_3_PIPE] |596|  ; [ORIG 16-BIT INS]
     628                            ; BRANCH OCCURS {||$C$L3||}      ; [] |596| 
     629                    ;* --------------------------------------------------------------------------*
     630 0000008a           ||$C$L2||:    
     631                            .dwpsn  file "../Source/tasks.c",line 602,column 5,is_stmt,isa 1
     632 0000008a 48A3              LDR       A1, $C$CON3           ; [DPU_3_PIPE] |602|  ; [ORIG 16-BIT INS]
     633 0000008c 6800              LDR       A1, [A1, #0]          ; [DPU_3_PIPE] |602|  ; [ORIG 16-BIT INS]
     634 0000008e B940              CBNZ      A1, ||$C$L3||         ; []  ; [ORIG 16-BIT INS]
     635                            ; BRANCHCC OCCURS {||$C$L3||}    ; [] |602| 
     636                    ;* --------------------------------------------------------------------------*
     637                            .dwpsn  file "../Source/tasks.c",line 604,column 6,is_stmt,isa 1
     638 00000090 489B              LDR       A1, $C$CON2           ; [DPU_3_PIPE] |604|  ; [ORIG 16-BIT INS]
     639 00000092 6801              LDR       A2, [A1, #0]          ; [DPU_3_PIPE] |604|  ; [ORIG 16-BIT INS]
     640 00000094 980A              LDR       A1, [SP, #40]         ; [DPU_3_PIPE] |604|  ; [ORIG 16-BIT INS]
     641 00000096 6AC9              LDR       A2, [A2, #44]         ; [DPU_3_PIPE] |604|  ; [ORIG 16-BIT INS]
     642 00000098 4288              CMP       A1, A2                ; [DPU_3_PIPE] |604|  ; [ORIG 16-BIT INS]
     643 0000009a D302              BCC       ||$C$L3||             ; [DPU_3_PIPE] |604|  ; [ORIG 16-BIT INS]
     644                            ; BRANCHCC OCCURS {||$C$L3||}    ; [] |604| 
     645                    ;* --------------------------------------------------------------------------*
     646                            .dwpsn  file "../Source/tasks.c",line 606,column 7,is_stmt,isa 1
     647 0000009c 9806              LDR       A1, [SP, #24]         ; [DPU_3_PIPE] |606|  ; [ORIG 16-BIT INS]
     648 0000009e 4998              LDR       A2, $C$CON2           ; [DPU_3_PIPE] |606|  ; [ORIG 16-BIT INS]
     649 000000a0 6008              STR       A1, [A2, #0]          ; [DPU_3_PIPE] |606|  ; [ORIG 16-BIT INS]
     650                    ;* --------------------------------------------------------------------------*
     651 000000a2           ||$C$L3||:    
     652                            .dwpsn  file "../Source/tasks.c",line 613,column 4,is_stmt,isa 1
     653 000000a2 48A6              LDR       A1, $C$CON4           ; [DPU_3_PIPE] |613|  ; [ORIG 16-BIT INS]
     654 000000a4 9906              LDR       A2, [SP, #24]         ; [DPU_3_PIPE] |613|  ; [ORIG 16-BIT INS]
     655 000000a6 6800              LDR       A1, [A1, #0]          ; [DPU_3_PIPE] |613|  ; [ORIG 16-BIT INS]
     656 000000a8 6AC9              LDR       A2, [A2, #44]         ; [DPU_3_PIPE] |613|  ; [ORIG 16-BIT INS]
     657 000000aa 4288              CMP       A1, A2                ; [DPU_3_PIPE] |613|  ; [ORIG 16-BIT INS]
     658 000000ac D203              BCS       ||$C$L4||             ; [DPU_3_PIPE] |613|  ; [ORIG 16-BIT INS]
     659                            ; BRANCHCC OCCURS {||$C$L4||}    ; [] |613| 
     660                    ;* --------------------------------------------------------------------------*
TI ARM Assembler PC v5.1.7 Thu Oct 02 08:28:40 2014

Tools Copyright (c) 1996-2014 Texas Instruments Incorporated
tasks.asm                                                            PAGE   13

     661                            .dwpsn  file "../Source/tasks.c",line 615,column 5,is_stmt,isa 1
     662 000000ae 9806              LDR       A1, [SP, #24]         ; [DPU_3_PIPE] |615|  ; [ORIG 16-BIT INS]
     663 000000b0 49A2              LDR       A2, $C$CON4           ; [DPU_3_PIPE] |615|  ; [ORIG 16-BIT INS]
     664 000000b2 6AC0              LDR       A1, [A1, #44]         ; [DPU_3_PIPE] |615|  ; [ORIG 16-BIT INS]
     665 000000b4 6008              STR       A1, [A2, #0]          ; [DPU_3_PIPE] |615|  ; [ORIG 16-BIT INS]
     666                    ;* --------------------------------------------------------------------------*
     667 000000b6           ||$C$L4||:    
     668                            .dwpsn  file "../Source/tasks.c",line 618,column 4,is_stmt,isa 1
     669 000000b6 49A2              LDR       A2, $C$CON5           ; [DPU_3_PIPE] |618|  ; [ORIG 16-BIT INS]
     670 000000b8 6808              LDR       A1, [A2, #0]          ; [DPU_3_PIPE] |618|  ; [ORIG 16-BIT INS]
     671 000000ba 1C40              ADDS      A1, A1, #1            ; [DPU_3_PIPE] |618|  ; [ORIG 16-BIT INS]
     672 000000bc 6008              STR       A1, [A2, #0]          ; [DPU_3_PIPE] |618|  ; [ORIG 16-BIT INS]
     673                            .dwpsn  file "../Source/tasks.c",line 628,column 4,is_stmt,isa 1
     674 000000be 48A1              LDR       A1, $C$CON6           ; [DPU_3_PIPE] |628|  ; [ORIG 16-BIT INS]
     675 000000c0 9906              LDR       A2, [SP, #24]         ; [DPU_3_PIPE] |628|  ; [ORIG 16-BIT INS]
     676 000000c2 6800              LDR       A1, [A1, #0]          ; [DPU_3_PIPE] |628|  ; [ORIG 16-BIT INS]
     677 000000c4 6AC9              LDR       A2, [A2, #44]         ; [DPU_3_PIPE] |628|  ; [ORIG 16-BIT INS]
     678 000000c6 4288              CMP       A1, A2                ; [DPU_3_PIPE] |628|  ; [ORIG 16-BIT INS]
     679 000000c8 D203              BCS       ||$C$L5||             ; [DPU_3_PIPE] |628|  ; [ORIG 16-BIT INS]
     680                            ; BRANCHCC OCCURS {||$C$L5||}    ; [] |628| 
     681                    ;* --------------------------------------------------------------------------*
     682 000000ca 9806              LDR       A1, [SP, #24]         ; [DPU_3_PIPE] |628|  ; [ORIG 16-BIT INS]
     683 000000cc 499D              LDR       A2, $C$CON6           ; [DPU_3_PIPE] |628|  ; [ORIG 16-BIT INS]
     684 000000ce 6AC0              LDR       A1, [A1, #44]         ; [DPU_3_PIPE] |628|  ; [ORIG 16-BIT INS]
     685 000000d0 6008              STR       A1, [A2, #0]          ; [DPU_3_PIPE] |628|  ; [ORIG 16-BIT INS]
     686                    ;* --------------------------------------------------------------------------*
     687 000000d2           ||$C$L5||:    
     688 000000d2 9806              LDR       A1, [SP, #24]         ; [DPU_3_PIPE] |628|  ; [ORIG 16-BIT INS]
     689 000000d4 6AC3              LDR       A4, [A1, #44]         ; [DPU_3_PIPE] |628|  ; [ORIG 16-BIT INS]
     690 000000d6 9906              LDR       A2, [SP, #24]         ; [DPU_3_PIPE] |628|  ; [ORIG 16-BIT INS]
     691 000000d8 489B              LDR       A1, $C$CON7           ; [DPU_3_PIPE] |628|  ; [ORIG 16-BIT INS]
     692 000000da 009A              LSLS      A3, A4, #2            ; [DPU_3_PIPE] |628|  ; [ORIG 16-BIT INS]
     693 000000dc 1D09              ADDS      A2, A2, #4            ; [DPU_3_PIPE] |628|  ; [ORIG 16-BIT INS]
     694 000000de 1203EB02          ADD       A3, A3, A4, LSL #4    ; [DPU_3_PIPE] |628|  ; [KEEP 32-BIT INS]
     695 000000e2 1880              ADDS      A1, A1, A3            ; [DPU_3_PIPE] |628|  ; [ORIG 16-BIT INS]
     696                    $C$DW$77        .dwtag  DW_TAG_TI_branch
     697                            .dwattr $C$DW$77, DW_AT_low_pc(0x00)
     698                            .dwattr $C$DW$77, DW_AT_name("vListInsertEnd")
     699                            .dwattr $C$DW$77, DW_AT_TI_call
     700 000000e4 FFFEF7FF!         BL        vListInsertEnd        ; [DPU_3_PIPE] |628|  ; [KEEP 32-BIT INS]
     701                            ; CALL OCCURS {vListInsertEnd }  ; [] |628| 
     702                            .dwpsn  file "../Source/tasks.c",line 630,column 4,is_stmt,isa 1
     703 000000e8 2001              MOVS      A1, #1                ; [DPU_3_PIPE] |630|  ; [ORIG 16-BIT INS]
     704 000000ea 9005              STR       A1, [SP, #20]         ; [DPU_3_PIPE] |630|  ; [ORIG 16-BIT INS]
     705                            .dwpsn  file "../Source/tasks.c",line 631,column 4,is_stmt,isa 1
     706                            .dwpsn  file "../Source/tasks.c",line 633,column 3,is_stmt,isa 1
     707                    $C$DW$78        .dwtag  DW_TAG_TI_branch
     708                            .dwattr $C$DW$78, DW_AT_low_pc(0x00)
     709                            .dwattr $C$DW$78, DW_AT_name("vPortExitCritical")
     710                            .dwattr $C$DW$78, DW_AT_TI_call
     711 000000ec FFFEF7FF!         BL        vPortExitCritical     ; [DPU_3_PIPE] |633|  ; [KEEP 32-BIT INS]
     712                            ; CALL OCCURS {vPortExitCritical }  ; [] |633| 
     713                            .dwendtag $C$DW$71
     714                    
     715                            .dwpsn  file "../Source/tasks.c",line 634,column 2,is_stmt,isa 1
TI ARM Assembler PC v5.1.7 Thu Oct 02 08:28:40 2014

Tools Copyright (c) 1996-2014 Texas Instruments Incorporated
tasks.asm                                                            PAGE   14

     716 000000f0 E002              B         ||$C$L7||             ; [DPU_3_PIPE] |634|  ; [ORIG 16-BIT INS]
     717                            ; BRANCH OCCURS {||$C$L7||}      ; [] |634| 
     718                    ;* --------------------------------------------------------------------------*
     719 000000f2           ||$C$L6||:    
     720                            .dwpsn  file "../Source/tasks.c",line 637,column 3,is_stmt,isa 1
     721 000000f2 30FFF04F          MOV       A1, #-1               ; [DPU_3_PIPE] |637|  ; [KEEP 32-BIT INS]
     722 000000f6 9005              STR       A1, [SP, #20]         ; [DPU_3_PIPE] |637|  ; [ORIG 16-BIT INS]
     723                    ;* --------------------------------------------------------------------------*
     724 000000f8           ||$C$L7||:    
     725                            .dwpsn  file "../Source/tasks.c",line 641,column 2,is_stmt,isa 1
     726 000000f8 9805              LDR       A1, [SP, #20]         ; [DPU_3_PIPE] |641|  ; [ORIG 16-BIT INS]
     727 000000fa 2801              CMP       A1, #1                ; [DPU_3_PIPE] |641|  ; [ORIG 16-BIT INS]
     728 000000fc D10A              BNE       ||$C$L8||             ; [DPU_3_PIPE] |641|  ; [ORIG 16-BIT INS]
     729                            ; BRANCHCC OCCURS {||$C$L8||}    ; [] |641| 
     730                    ;* --------------------------------------------------------------------------*
     731                            .dwpsn  file "../Source/tasks.c",line 643,column 3,is_stmt,isa 1
     732 000000fe 4886              LDR       A1, $C$CON3           ; [DPU_3_PIPE] |643|  ; [ORIG 16-BIT INS]
     733 00000100 6800              LDR       A1, [A1, #0]          ; [DPU_3_PIPE] |643|  ; [ORIG 16-BIT INS]
     734 00000102 B138              CBZ       A1, ||$C$L8||         ; []  ; [ORIG 16-BIT INS]
     735                            ; BRANCHCC OCCURS {||$C$L8||}    ; [] |643| 
     736                    ;* --------------------------------------------------------------------------*
     737                            .dwpsn  file "../Source/tasks.c",line 647,column 4,is_stmt,isa 1
     738 00000104 487E              LDR       A1, $C$CON2           ; [DPU_3_PIPE] |647|  ; [ORIG 16-BIT INS]
     739 00000106 6801              LDR       A2, [A1, #0]          ; [DPU_3_PIPE] |647|  ; [ORIG 16-BIT INS]
     740 00000108 980A              LDR       A1, [SP, #40]         ; [DPU_3_PIPE] |647|  ; [ORIG 16-BIT INS]
     741 0000010a 6AC9              LDR       A2, [A2, #44]         ; [DPU_3_PIPE] |647|  ; [ORIG 16-BIT INS]
     742 0000010c 4288              CMP       A1, A2                ; [DPU_3_PIPE] |647|  ; [ORIG 16-BIT INS]
     743 0000010e D901              BLS       ||$C$L8||             ; [DPU_3_PIPE] |647|  ; [ORIG 16-BIT INS]
     744                            ; BRANCHCC OCCURS {||$C$L8||}    ; [] |647| 
     745                    ;* --------------------------------------------------------------------------*
     746                            .dwpsn  file "../Source/tasks.c",line 649,column 5,is_stmt,isa 1
     747                    $C$DW$79        .dwtag  DW_TAG_TI_branch
     748                            .dwattr $C$DW$79, DW_AT_low_pc(0x00)
     749                            .dwattr $C$DW$79, DW_AT_name("vPortYieldFromISR")
     750                            .dwattr $C$DW$79, DW_AT_TI_call
     751 00000110 FFFEF7FF!         BL        vPortYieldFromISR     ; [DPU_3_PIPE] |649|  ; [KEEP 32-BIT INS]
     752                            ; CALL OCCURS {vPortYieldFromISR }  ; [] |649| 
     753                    ;* --------------------------------------------------------------------------*
     754 00000114           ||$C$L8||:    
     755                            .dwpsn  file "../Source/tasks.c",line 654,column 2,is_stmt,isa 1
     756 00000114 9805              LDR       A1, [SP, #20]         ; [DPU_3_PIPE] |654|  ; [ORIG 16-BIT INS]
     757                            .dwpsn  file "../Source/tasks.c",line 655,column 1,is_stmt,isa 1
     758 00000116 B009              ADD       SP, SP, #36           ; [DPU_3_PIPE]  ; [ORIG 16-BIT INS]
     759                            .dwcfi  cfa_offset, 4
     760                    $C$DW$80        .dwtag  DW_TAG_TI_branch
     761                            .dwattr $C$DW$80, DW_AT_low_pc(0x00)
     762                            .dwattr $C$DW$80, DW_AT_TI_return
     763 00000118 BD00              POP       {PC}                  ; [DPU_3_PIPE]  ; [ORIG 16-BIT INS]
     764                            .dwcfi  cfa_offset, 0
     765                            ; BRANCH OCCURS                  ; [] 
     766                            .dwattr $C$DW$55, DW_AT_TI_end_file("../Source/tasks.c")
     767                            .dwattr $C$DW$55, DW_AT_TI_end_line(0x28f)
     768                            .dwattr $C$DW$55, DW_AT_TI_end_column(0x01)
     769                            .dwendentry
     770                            .dwendtag $C$DW$55
TI ARM Assembler PC v5.1.7 Thu Oct 02 08:28:40 2014

Tools Copyright (c) 1996-2014 Texas Instruments Incorporated
tasks.asm                                                            PAGE   15

     771                    
     772 0000011a                   .sect   ".text"
     773                            .clink
     774                            .thumbfunc vTaskDelayUntil
     775 0000011a                   .thumb
     776                            .global vTaskDelayUntil
     777                    
     778                    $C$DW$81        .dwtag  DW_TAG_subprogram, DW_AT_name("vTaskDelayUntil")
     779                            .dwattr $C$DW$81, DW_AT_low_pc(vTaskDelayUntil)
     780                            .dwattr $C$DW$81, DW_AT_high_pc(0x00)
     781                            .dwattr $C$DW$81, DW_AT_TI_symbol_name("vTaskDelayUntil")
     782                            .dwattr $C$DW$81, DW_AT_external
     783                            .dwattr $C$DW$81, DW_AT_TI_begin_file("../Source/tasks.c")
     784                            .dwattr $C$DW$81, DW_AT_TI_begin_line(0x2d1)
     785                            .dwattr $C$DW$81, DW_AT_TI_begin_column(0x07)
     786                            .dwattr $C$DW$81, DW_AT_decl_file("../Source/tasks.c")
     787                            .dwattr $C$DW$81, DW_AT_decl_line(0x2d1)
     788                            .dwattr $C$DW$81, DW_AT_decl_column(0x07)
     789                            .dwattr $C$DW$81, DW_AT_TI_max_frame_size(0x18)
     790                            .dwpsn  file "../Source/tasks.c",line 722,column 2,is_stmt,address vTaskDelayUntil,isa 1
     791                    
     792                            .dwfde $C$DW$CIE, vTaskDelayUntil
     793                    $C$DW$82        .dwtag  DW_TAG_formal_parameter, DW_AT_name("pxPreviousWakeTime")
     794                            .dwattr $C$DW$82, DW_AT_TI_symbol_name("pxPreviousWakeTime")
     795                            .dwattr $C$DW$82, DW_AT_type(*$C$DW$T$84)
     796                            .dwattr $C$DW$82, DW_AT_location[DW_OP_reg0]
     797                    $C$DW$83        .dwtag  DW_TAG_formal_parameter, DW_AT_name("xTimeIncrement")
     798                            .dwattr $C$DW$83, DW_AT_TI_symbol_name("xTimeIncrement")
     799                            .dwattr $C$DW$83, DW_AT_type(*$C$DW$T$36)
     800                            .dwattr $C$DW$83, DW_AT_location[DW_OP_reg1]
     801                    
     802                    ;*****************************************************************************
     803                    ;* FUNCTION NAME: vTaskDelayUntil                                            *
     804                    ;*                                                                           *
     805                    ;*   Regs Modified     : A1,A2,A3,A4,V9,SP,LR,SR                             *
     806                    ;*   Regs Used         : A1,A2,A3,A4,V9,SP,LR,SR                             *
     807                    ;*   Local Frame Size  : 0 Args + 20 Auto + 4 Save = 24 byte                 *
     808                    ;*****************************************************************************
     809 0000011a           vTaskDelayUntil:
     810                    ;* --------------------------------------------------------------------------*
     811                            .dwcfi  cfa_offset, 0
     812 0000011a B500              PUSH      {LR}                  ; [DPU_3_PIPE]  ; [ORIG 16-BIT INS]
     813                            .dwcfi  cfa_offset, 4
     814                            .dwcfi  save_reg_to_mem, 14, -4
     815 0000011c 0D14F1AD          SUB       SP, SP, #20           ; [DPU_3_PIPE]  ; [KEEP 32-BIT INS]
     816                            .dwcfi  cfa_offset, 24
     817                    $C$DW$84        .dwtag  DW_TAG_variable, DW_AT_name("pxPreviousWakeTime")
     818                            .dwattr $C$DW$84, DW_AT_TI_symbol_name("pxPreviousWakeTime")
     819                            .dwattr $C$DW$84, DW_AT_type(*$C$DW$T$84)
     820                            .dwattr $C$DW$84, DW_AT_location[DW_OP_breg13 0]
     821                    $C$DW$85        .dwtag  DW_TAG_variable, DW_AT_name("xTimeIncrement")
     822                            .dwattr $C$DW$85, DW_AT_TI_symbol_name("xTimeIncrement")
     823                            .dwattr $C$DW$85, DW_AT_type(*$C$DW$T$36)
     824                            .dwattr $C$DW$85, DW_AT_location[DW_OP_breg13 4]
     825                    $C$DW$86        .dwtag  DW_TAG_variable, DW_AT_name("xTimeToWake")
TI ARM Assembler PC v5.1.7 Thu Oct 02 08:28:40 2014

Tools Copyright (c) 1996-2014 Texas Instruments Incorporated
tasks.asm                                                            PAGE   16

     826                            .dwattr $C$DW$86, DW_AT_TI_symbol_name("xTimeToWake")
     827                            .dwattr $C$DW$86, DW_AT_type(*$C$DW$T$36)
     828                            .dwattr $C$DW$86, DW_AT_location[DW_OP_breg13 8]
     829                    $C$DW$87        .dwtag  DW_TAG_variable, DW_AT_name("xAlreadyYielded")
     830                            .dwattr $C$DW$87, DW_AT_TI_symbol_name("xAlreadyYielded")
     831                            .dwattr $C$DW$87, DW_AT_type(*$C$DW$T$12)
     832                            .dwattr $C$DW$87, DW_AT_location[DW_OP_breg13 12]
     833                    $C$DW$88        .dwtag  DW_TAG_variable, DW_AT_name("xShouldDelay")
     834                            .dwattr $C$DW$88, DW_AT_TI_symbol_name("xShouldDelay")
     835                            .dwattr $C$DW$88, DW_AT_type(*$C$DW$T$12)
     836                            .dwattr $C$DW$88, DW_AT_location[DW_OP_breg13 16]
     837 00000120 9101              STR       A2, [SP, #4]          ; [DPU_3_PIPE] |722|  ; [ORIG 16-BIT INS]
     838 00000122 9000              STR       A1, [SP, #0]          ; [DPU_3_PIPE] |722|  ; [ORIG 16-BIT INS]
     839                            .dwpsn  file "../Source/tasks.c",line 724,column 46,is_stmt,isa 1
     840 00000124 2000              MOVS      A1, #0                ; [DPU_3_PIPE] |724|  ; [ORIG 16-BIT INS]
     841 00000126 9004              STR       A1, [SP, #16]         ; [DPU_3_PIPE] |724|  ; [ORIG 16-BIT INS]
     842                            .dwpsn  file "../Source/tasks.c",line 729,column 3,is_stmt,isa 1
     843                    $C$DW$89        .dwtag  DW_TAG_TI_branch
     844                            .dwattr $C$DW$89, DW_AT_low_pc(0x00)
     845                            .dwattr $C$DW$89, DW_AT_name("vTaskSuspendAll")
     846                            .dwattr $C$DW$89, DW_AT_TI_call
     847 00000128 F883F000          BL        vTaskSuspendAll       ; [DPU_3_PIPE] |729|  ; [KEEP 32-BIT INS]
     848                            ; CALL OCCURS {vTaskSuspendAll }  ; [] |729| 
     849                            .dwpsn  file "../Source/tasks.c",line 732,column 4,is_stmt,isa 1
     850 0000012c 9900              LDR       A2, [SP, #0]          ; [DPU_3_PIPE] |732|  ; [ORIG 16-BIT INS]
     851 0000012e 9801              LDR       A1, [SP, #4]          ; [DPU_3_PIPE] |732|  ; [ORIG 16-BIT INS]
     852 00000130 6809              LDR       A2, [A2, #0]          ; [DPU_3_PIPE] |732|  ; [ORIG 16-BIT INS]
     853 00000132 1840              ADDS      A1, A1, A2            ; [DPU_3_PIPE] |732|  ; [ORIG 16-BIT INS]
     854 00000134 9002              STR       A1, [SP, #8]          ; [DPU_3_PIPE] |732|  ; [ORIG 16-BIT INS]
     855                            .dwpsn  file "../Source/tasks.c",line 734,column 4,is_stmt,isa 1
     856 00000136 49A6              LDR       A2, $C$CON8           ; [DPU_3_PIPE] |734|  ; [ORIG 16-BIT INS]
     857 00000138 9800              LDR       A1, [SP, #0]          ; [DPU_3_PIPE] |734|  ; [ORIG 16-BIT INS]
     858 0000013a 6809              LDR       A2, [A2, #0]          ; [DPU_3_PIPE] |734|  ; [ORIG 16-BIT INS]
     859 0000013c 6800              LDR       A1, [A1, #0]          ; [DPU_3_PIPE] |734|  ; [ORIG 16-BIT INS]
     860 0000013e 4288              CMP       A1, A2                ; [DPU_3_PIPE] |734|  ; [ORIG 16-BIT INS]
     861 00000140 D90C              BLS       ||$C$L9||             ; [DPU_3_PIPE] |734|  ; [ORIG 16-BIT INS]
     862                            ; BRANCHCC OCCURS {||$C$L9||}    ; [] |734| 
     863                    ;* --------------------------------------------------------------------------*
     864                            .dwpsn  file "../Source/tasks.c",line 741,column 5,is_stmt,isa 1
     865 00000142 9800              LDR       A1, [SP, #0]          ; [DPU_3_PIPE] |741|  ; [ORIG 16-BIT INS]
     866 00000144 9902              LDR       A2, [SP, #8]          ; [DPU_3_PIPE] |741|  ; [ORIG 16-BIT INS]
     867 00000146 6800              LDR       A1, [A1, #0]          ; [DPU_3_PIPE] |741|  ; [ORIG 16-BIT INS]
     868 00000148 4288              CMP       A1, A2                ; [DPU_3_PIPE] |741|  ; [ORIG 16-BIT INS]
     869 0000014a D913              BLS       ||$C$L11||            ; [DPU_3_PIPE] |741|  ; [ORIG 16-BIT INS]
     870                            ; BRANCHCC OCCURS {||$C$L11||}   ; [] |741| 
     871                    ;* --------------------------------------------------------------------------*
     872 0000014c 48A0              LDR       A1, $C$CON8           ; [DPU_3_PIPE] |741|  ; [ORIG 16-BIT INS]
     873 0000014e 9902              LDR       A2, [SP, #8]          ; [DPU_3_PIPE] |741|  ; [ORIG 16-BIT INS]
     874 00000150 6800              LDR       A1, [A1, #0]          ; [DPU_3_PIPE] |741|  ; [ORIG 16-BIT INS]
     875 00000152 4288              CMP       A1, A2                ; [DPU_3_PIPE] |741|  ; [ORIG 16-BIT INS]
     876 00000154 D20E              BCS       ||$C$L11||            ; [DPU_3_PIPE] |741|  ; [ORIG 16-BIT INS]
     877                            ; BRANCHCC OCCURS {||$C$L11||}   ; [] |741| 
     878                    ;* --------------------------------------------------------------------------*
     879                            .dwpsn  file "../Source/tasks.c",line 743,column 6,is_stmt,isa 1
     880 00000156 2001              MOVS      A1, #1                ; [DPU_3_PIPE] |743|  ; [ORIG 16-BIT INS]
TI ARM Assembler PC v5.1.7 Thu Oct 02 08:28:40 2014

Tools Copyright (c) 1996-2014 Texas Instruments Incorporated
tasks.asm                                                            PAGE   17

     881 00000158 9004              STR       A1, [SP, #16]         ; [DPU_3_PIPE] |743|  ; [ORIG 16-BIT INS]
     882                            .dwpsn  file "../Source/tasks.c",line 745,column 4,is_stmt,isa 1
     883 0000015a E00B              B         ||$C$L11||            ; [DPU_3_PIPE] |745|  ; [ORIG 16-BIT INS]
     884                            ; BRANCH OCCURS {||$C$L11||}     ; [] |745| 
     885                    ;* --------------------------------------------------------------------------*
     886 0000015c           ||$C$L9||:    
     887                            .dwpsn  file "../Source/tasks.c",line 751,column 5,is_stmt,isa 1
     888 0000015c 9800              LDR       A1, [SP, #0]          ; [DPU_3_PIPE] |751|  ; [ORIG 16-BIT INS]
     889 0000015e 9902              LDR       A2, [SP, #8]          ; [DPU_3_PIPE] |751|  ; [ORIG 16-BIT INS]
     890 00000160 6800              LDR       A1, [A1, #0]          ; [DPU_3_PIPE] |751|  ; [ORIG 16-BIT INS]
     891 00000162 4288              CMP       A1, A2                ; [DPU_3_PIPE] |751|  ; [ORIG 16-BIT INS]
     892 00000164 D804              BHI       ||$C$L10||            ; [DPU_3_PIPE] |751|  ; [ORIG 16-BIT INS]
     893                            ; BRANCHCC OCCURS {||$C$L10||}   ; [] |751| 
     894                    ;* --------------------------------------------------------------------------*
     895 00000166 489A              LDR       A1, $C$CON8           ; [DPU_3_PIPE] |751|  ; [ORIG 16-BIT INS]
     896 00000168 9902              LDR       A2, [SP, #8]          ; [DPU_3_PIPE] |751|  ; [ORIG 16-BIT INS]
     897 0000016a 6800              LDR       A1, [A1, #0]          ; [DPU_3_PIPE] |751|  ; [ORIG 16-BIT INS]
     898 0000016c 4288              CMP       A1, A2                ; [DPU_3_PIPE] |751|  ; [ORIG 16-BIT INS]
     899 0000016e D201              BCS       ||$C$L11||            ; [DPU_3_PIPE] |751|  ; [ORIG 16-BIT INS]
     900                            ; BRANCHCC OCCURS {||$C$L11||}   ; [] |751| 
     901                    ;* --------------------------------------------------------------------------*
     902 00000170           ||$C$L10||:    
     903                            .dwpsn  file "../Source/tasks.c",line 753,column 6,is_stmt,isa 1
     904 00000170 2001              MOVS      A1, #1                ; [DPU_3_PIPE] |753|  ; [ORIG 16-BIT INS]
     905 00000172 9004              STR       A1, [SP, #16]         ; [DPU_3_PIPE] |753|  ; [ORIG 16-BIT INS]
     906                    ;* --------------------------------------------------------------------------*
     907 00000174           ||$C$L11||:    
     908                            .dwpsn  file "../Source/tasks.c",line 758,column 4,is_stmt,isa 1
     909 00000174 9802              LDR       A1, [SP, #8]          ; [DPU_3_PIPE] |758|  ; [ORIG 16-BIT INS]
     910 00000176 9900              LDR       A2, [SP, #0]          ; [DPU_3_PIPE] |758|  ; [ORIG 16-BIT INS]
     911 00000178 6008              STR       A1, [A2, #0]          ; [DPU_3_PIPE] |758|  ; [ORIG 16-BIT INS]
     912                            .dwpsn  file "../Source/tasks.c",line 760,column 4,is_stmt,isa 1
     913 0000017a 9804              LDR       A1, [SP, #16]         ; [DPU_3_PIPE] |760|  ; [ORIG 16-BIT INS]
     914 0000017c B138              CBZ       A1, ||$C$L12||        ; []  ; [ORIG 16-BIT INS]
     915                            ; BRANCHCC OCCURS {||$C$L12||}   ; [] |760| 
     916                    ;* --------------------------------------------------------------------------*
     917                            .dwpsn  file "../Source/tasks.c",line 767,column 5,is_stmt,isa 1
     918 0000017e 4860              LDR       A1, $C$CON2           ; [DPU_3_PIPE] |767|  ; [ORIG 16-BIT INS]
     919 00000180 6800              LDR       A1, [A1, #0]          ; [DPU_3_PIPE] |767|  ; [ORIG 16-BIT INS]
     920 00000182 1D00              ADDS      A1, A1, #4            ; [DPU_3_PIPE] |767|  ; [ORIG 16-BIT INS]
     921                    $C$DW$90        .dwtag  DW_TAG_TI_branch
     922                            .dwattr $C$DW$90, DW_AT_low_pc(0x00)
     923                            .dwattr $C$DW$90, DW_AT_name("uxListRemove")
     924                            .dwattr $C$DW$90, DW_AT_TI_call
     925 00000184 FFFEF7FF!         BL        uxListRemove          ; [DPU_3_PIPE] |767|  ; [KEEP 32-BIT INS]
     926                            ; CALL OCCURS {uxListRemove }    ; [] |767| 
     927                            .dwpsn  file "../Source/tasks.c",line 775,column 5,is_stmt,isa 1
     928 00000188 9802              LDR       A1, [SP, #8]          ; [DPU_3_PIPE] |775|  ; [ORIG 16-BIT INS]
     929                    $C$DW$91        .dwtag  DW_TAG_TI_branch
     930                            .dwattr $C$DW$91, DW_AT_low_pc(0x00)
     931                            .dwattr $C$DW$91, DW_AT_name("prvAddCurrentTaskToDelayedList")
     932                            .dwattr $C$DW$91, DW_AT_TI_call
     933 0000018a FAA3F000          BL        prvAddCurrentTaskToDelayedList ; [DPU_3_PIPE] |775|  ; [KEEP 32-BIT INS]
     934                            ; CALL OCCURS {prvAddCurrentTaskToDelayedList }  ; [] |775| 
     935                    ;* --------------------------------------------------------------------------*
TI ARM Assembler PC v5.1.7 Thu Oct 02 08:28:40 2014

Tools Copyright (c) 1996-2014 Texas Instruments Incorporated
tasks.asm                                                            PAGE   18

     936 0000018e           ||$C$L12||:    
     937                            .dwpsn  file "../Source/tasks.c",line 778,column 3,is_stmt,isa 1
     938                    $C$DW$92        .dwtag  DW_TAG_TI_branch
     939                            .dwattr $C$DW$92, DW_AT_low_pc(0x00)
     940                            .dwattr $C$DW$92, DW_AT_name("xTaskResumeAll")
     941                            .dwattr $C$DW$92, DW_AT_TI_call
     942 0000018e F855F000          BL        xTaskResumeAll        ; [DPU_3_PIPE] |778|  ; [KEEP 32-BIT INS]
     943                            ; CALL OCCURS {xTaskResumeAll }  ; [] |778| 
     944 00000192 9003              STR       A1, [SP, #12]         ; [DPU_3_PIPE] |778|  ; [ORIG 16-BIT INS]
     945                            .dwpsn  file "../Source/tasks.c",line 782,column 3,is_stmt,isa 1
     946 00000194 9803              LDR       A1, [SP, #12]         ; [DPU_3_PIPE] |782|  ; [ORIG 16-BIT INS]
     947 00000196 B908              CBNZ      A1, ||$C$L13||        ; []  ; [ORIG 16-BIT INS]
     948                            ; BRANCHCC OCCURS {||$C$L13||}   ; [] |782| 
     949                    ;* --------------------------------------------------------------------------*
     950                            .dwpsn  file "../Source/tasks.c",line 784,column 4,is_stmt,isa 1
     951                    $C$DW$93        .dwtag  DW_TAG_TI_branch
     952                            .dwattr $C$DW$93, DW_AT_low_pc(0x00)
     953                            .dwattr $C$DW$93, DW_AT_name("vPortYieldFromISR")
     954                            .dwattr $C$DW$93, DW_AT_TI_call
     955 00000198 FFFEF7FF!         BL        vPortYieldFromISR     ; [DPU_3_PIPE] |784|  ; [KEEP 32-BIT INS]
     956                            ; CALL OCCURS {vPortYieldFromISR }  ; [] |784| 
     957                            .dwpsn  file "../Source/tasks.c",line 786,column 2,is_stmt,isa 1
     958                    ;* --------------------------------------------------------------------------*
     959 0000019c           ||$C$L13||:    
     960 0000019c B005              ADD       SP, SP, #20           ; [DPU_3_PIPE]  ; [ORIG 16-BIT INS]
     961                            .dwcfi  cfa_offset, 4
     962                    $C$DW$94        .dwtag  DW_TAG_TI_branch
     963                            .dwattr $C$DW$94, DW_AT_low_pc(0x00)
     964                            .dwattr $C$DW$94, DW_AT_TI_return
     965 0000019e BD00              POP       {PC}                  ; [DPU_3_PIPE]  ; [ORIG 16-BIT INS]
     966                            .dwcfi  cfa_offset, 0
     967                            ; BRANCH OCCURS                  ; [] 
     968                            .dwattr $C$DW$81, DW_AT_TI_end_file("../Source/tasks.c")
     969                            .dwattr $C$DW$81, DW_AT_TI_end_line(0x312)
     970                            .dwattr $C$DW$81, DW_AT_TI_end_column(0x02)
     971                            .dwendentry
     972                            .dwendtag $C$DW$81
     973                    
     974 000001a0                   .sect   ".text"
     975                            .clink
     976                            .thumbfunc vTaskDelay
     977 000001a0                   .thumb
     978                            .global vTaskDelay
     979                    
     980                    $C$DW$95        .dwtag  DW_TAG_subprogram, DW_AT_name("vTaskDelay")
     981                            .dwattr $C$DW$95, DW_AT_low_pc(vTaskDelay)
     982                            .dwattr $C$DW$95, DW_AT_high_pc(0x00)
     983                            .dwattr $C$DW$95, DW_AT_TI_symbol_name("vTaskDelay")
     984                            .dwattr $C$DW$95, DW_AT_external
     985                            .dwattr $C$DW$95, DW_AT_TI_begin_file("../Source/tasks.c")
     986                            .dwattr $C$DW$95, DW_AT_TI_begin_line(0x319)
     987                            .dwattr $C$DW$95, DW_AT_TI_begin_column(0x07)
     988                            .dwattr $C$DW$95, DW_AT_decl_file("../Source/tasks.c")
     989                            .dwattr $C$DW$95, DW_AT_decl_line(0x319)
     990                            .dwattr $C$DW$95, DW_AT_decl_column(0x07)
TI ARM Assembler PC v5.1.7 Thu Oct 02 08:28:40 2014

Tools Copyright (c) 1996-2014 Texas Instruments Incorporated
tasks.asm                                                            PAGE   19

     991                            .dwattr $C$DW$95, DW_AT_TI_max_frame_size(0x10)
     992                            .dwpsn  file "../Source/tasks.c",line 794,column 2,is_stmt,address vTaskDelay,isa 1
     993                    
     994                            .dwfde $C$DW$CIE, vTaskDelay
     995                    $C$DW$96        .dwtag  DW_TAG_formal_parameter, DW_AT_name("xTicksToDelay")
     996                            .dwattr $C$DW$96, DW_AT_TI_symbol_name("xTicksToDelay")
     997                            .dwattr $C$DW$96, DW_AT_type(*$C$DW$T$36)
     998                            .dwattr $C$DW$96, DW_AT_location[DW_OP_reg0]
     999                    
    1000                    ;*****************************************************************************
    1001                    ;* FUNCTION NAME: vTaskDelay                                                 *
    1002                    ;*                                                                           *
    1003                    ;*   Regs Modified     : A1,A2,A3,A4,V9,SP,LR,SR                             *
    1004                    ;*   Regs Used         : A1,A2,A3,A4,V9,SP,LR,SR                             *
    1005                    ;*   Local Frame Size  : 0 Args + 12 Auto + 4 Save = 16 byte                 *
    1006                    ;*****************************************************************************
    1007 000001a0           vTaskDelay:
    1008                    ;* --------------------------------------------------------------------------*
    1009                            .dwcfi  cfa_offset, 0
    1010 000001a0 B50E              PUSH      {A2, A3, A4, LR}      ; [DPU_3_PIPE]  ; [ORIG 16-BIT INS]
    1011                            .dwcfi  cfa_offset, 16
    1012                            .dwcfi  save_reg_to_mem, 14, -4
    1013                            .dwcfi  save_reg_to_mem, 3, -8
    1014                            .dwcfi  save_reg_to_mem, 2, -12
    1015                            .dwcfi  save_reg_to_mem, 1, -16
    1016                    $C$DW$97        .dwtag  DW_TAG_variable, DW_AT_name("xTicksToDelay")
    1017                            .dwattr $C$DW$97, DW_AT_TI_symbol_name("xTicksToDelay")
    1018                            .dwattr $C$DW$97, DW_AT_type(*$C$DW$T$36)
    1019                            .dwattr $C$DW$97, DW_AT_location[DW_OP_breg13 0]
    1020                    $C$DW$98        .dwtag  DW_TAG_variable, DW_AT_name("xTimeToWake")
    1021                            .dwattr $C$DW$98, DW_AT_TI_symbol_name("xTimeToWake")
    1022                            .dwattr $C$DW$98, DW_AT_type(*$C$DW$T$36)
    1023                            .dwattr $C$DW$98, DW_AT_location[DW_OP_breg13 4]
    1024                    $C$DW$99        .dwtag  DW_TAG_variable, DW_AT_name("xAlreadyYielded")
    1025                            .dwattr $C$DW$99, DW_AT_TI_symbol_name("xAlreadyYielded")
    1026                            .dwattr $C$DW$99, DW_AT_type(*$C$DW$T$12)
    1027                            .dwattr $C$DW$99, DW_AT_location[DW_OP_breg13 8]
    1028 000001a2 9000              STR       A1, [SP, #0]          ; [DPU_3_PIPE] |794|  ; [ORIG 16-BIT INS]
    1029                            .dwpsn  file "../Source/tasks.c",line 796,column 39,is_stmt,isa 1
    1030 000001a4 2000              MOVS      A1, #0                ; [DPU_3_PIPE] |796|  ; [ORIG 16-BIT INS]
    1031 000001a6 9002              STR       A1, [SP, #8]          ; [DPU_3_PIPE] |796|  ; [ORIG 16-BIT INS]
    1032                            .dwpsn  file "../Source/tasks.c",line 799,column 3,is_stmt,isa 1
    1033 000001a8 9800              LDR       A1, [SP, #0]          ; [DPU_3_PIPE] |799|  ; [ORIG 16-BIT INS]
    1034 000001aa B188              CBZ       A1, ||$C$L14||        ; []  ; [ORIG 16-BIT INS]
    1035                            ; BRANCHCC OCCURS {||$C$L14||}   ; [] |799| 
    1036                    ;* --------------------------------------------------------------------------*
    1037                            .dwpsn  file "../Source/tasks.c",line 801,column 4,is_stmt,isa 1
    1038                    $C$DW$100       .dwtag  DW_TAG_TI_branch
    1039                            .dwattr $C$DW$100, DW_AT_low_pc(0x00)
    1040                            .dwattr $C$DW$100, DW_AT_name("vTaskSuspendAll")
    1041                            .dwattr $C$DW$100, DW_AT_TI_call
    1042 000001ac F841F000          BL        vTaskSuspendAll       ; [DPU_3_PIPE] |801|  ; [KEEP 32-BIT INS]
    1043                            ; CALL OCCURS {vTaskSuspendAll }  ; [] |801| 
    1044                            .dwpsn  file "../Source/tasks.c",line 815,column 5,is_stmt,isa 1
    1045 000001b0 4987              LDR       A2, $C$CON8           ; [DPU_3_PIPE] |815|  ; [ORIG 16-BIT INS]
TI ARM Assembler PC v5.1.7 Thu Oct 02 08:28:40 2014

Tools Copyright (c) 1996-2014 Texas Instruments Incorporated
tasks.asm                                                            PAGE   20

    1046 000001b2 9800              LDR       A1, [SP, #0]          ; [DPU_3_PIPE] |815|  ; [ORIG 16-BIT INS]
    1047 000001b4 6809              LDR       A2, [A2, #0]          ; [DPU_3_PIPE] |815|  ; [ORIG 16-BIT INS]
    1048 000001b6 1840              ADDS      A1, A1, A2            ; [DPU_3_PIPE] |815|  ; [ORIG 16-BIT INS]
    1049 000001b8 9001              STR       A1, [SP, #4]          ; [DPU_3_PIPE] |815|  ; [ORIG 16-BIT INS]
    1050                            .dwpsn  file "../Source/tasks.c",line 820,column 5,is_stmt,isa 1
    1051 000001ba 4851              LDR       A1, $C$CON2           ; [DPU_3_PIPE] |820|  ; [ORIG 16-BIT INS]
    1052 000001bc 6800              LDR       A1, [A1, #0]          ; [DPU_3_PIPE] |820|  ; [ORIG 16-BIT INS]
    1053 000001be 1D00              ADDS      A1, A1, #4            ; [DPU_3_PIPE] |820|  ; [ORIG 16-BIT INS]
    1054                    $C$DW$101       .dwtag  DW_TAG_TI_branch
    1055                            .dwattr $C$DW$101, DW_AT_low_pc(0x00)
    1056                            .dwattr $C$DW$101, DW_AT_name("uxListRemove")
    1057                            .dwattr $C$DW$101, DW_AT_TI_call
    1058 000001c0 FFFEF7FF!         BL        uxListRemove          ; [DPU_3_PIPE] |820|  ; [KEEP 32-BIT INS]
    1059                            ; CALL OCCURS {uxListRemove }    ; [] |820| 
    1060                            .dwpsn  file "../Source/tasks.c",line 827,column 5,is_stmt,isa 1
    1061 000001c4 9801              LDR       A1, [SP, #4]          ; [DPU_3_PIPE] |827|  ; [ORIG 16-BIT INS]
    1062                    $C$DW$102       .dwtag  DW_TAG_TI_branch
    1063                            .dwattr $C$DW$102, DW_AT_low_pc(0x00)
    1064                            .dwattr $C$DW$102, DW_AT_name("prvAddCurrentTaskToDelayedList")
    1065                            .dwattr $C$DW$102, DW_AT_TI_call
    1066 000001c6 FA85F000          BL        prvAddCurrentTaskToDelayedList ; [DPU_3_PIPE] |827|  ; [KEEP 32-BIT INS]
    1067                            ; CALL OCCURS {prvAddCurrentTaskToDelayedList }  ; [] |827| 
    1068                            .dwpsn  file "../Source/tasks.c",line 829,column 4,is_stmt,isa 1
    1069                    $C$DW$103       .dwtag  DW_TAG_TI_branch
    1070                            .dwattr $C$DW$103, DW_AT_low_pc(0x00)
    1071                            .dwattr $C$DW$103, DW_AT_name("xTaskResumeAll")
    1072                            .dwattr $C$DW$103, DW_AT_TI_call
    1073 000001ca F837F000          BL        xTaskResumeAll        ; [DPU_3_PIPE] |829|  ; [KEEP 32-BIT INS]
    1074                            ; CALL OCCURS {xTaskResumeAll }  ; [] |829| 
    1075 000001ce 9002              STR       A1, [SP, #8]          ; [DPU_3_PIPE] |829|  ; [ORIG 16-BIT INS]
    1076                    ;* --------------------------------------------------------------------------*
    1077 000001d0           ||$C$L14||:    
    1078                            .dwpsn  file "../Source/tasks.c",line 834,column 3,is_stmt,isa 1
    1079 000001d0 9802              LDR       A1, [SP, #8]          ; [DPU_3_PIPE] |834|  ; [ORIG 16-BIT INS]
    1080 000001d2 B908              CBNZ      A1, ||$C$L15||        ; []  ; [ORIG 16-BIT INS]
    1081                            ; BRANCHCC OCCURS {||$C$L15||}   ; [] |834| 
    1082                    ;* --------------------------------------------------------------------------*
    1083                            .dwpsn  file "../Source/tasks.c",line 836,column 4,is_stmt,isa 1
    1084                    $C$DW$104       .dwtag  DW_TAG_TI_branch
    1085                            .dwattr $C$DW$104, DW_AT_low_pc(0x00)
    1086                            .dwattr $C$DW$104, DW_AT_name("vPortYieldFromISR")
    1087                            .dwattr $C$DW$104, DW_AT_TI_call
    1088 000001d4 FFFEF7FF!         BL        vPortYieldFromISR     ; [DPU_3_PIPE] |836|  ; [KEEP 32-BIT INS]
    1089                            ; CALL OCCURS {vPortYieldFromISR }  ; [] |836| 
    1090                            .dwpsn  file "../Source/tasks.c",line 838,column 2,is_stmt,isa 1
    1091                    ;* --------------------------------------------------------------------------*
    1092                    ||$C$L15||:    
    1093                    $C$DW$105       .dwtag  DW_TAG_TI_branch
    1094                            .dwattr $C$DW$105, DW_AT_low_pc(0x00)
    1095                            .dwattr $C$DW$105, DW_AT_TI_return
    1096 000001d8 BD0E              POP       {A2, A3, A4, PC}      ; [DPU_3_PIPE]  ; [ORIG 16-BIT INS]
    1097                            .dwcfi  cfa_offset, 0
    1098                            ; BRANCH OCCURS                  ; [] 
    1099                            .dwattr $C$DW$95, DW_AT_TI_end_file("../Source/tasks.c")
    1100                            .dwattr $C$DW$95, DW_AT_TI_end_line(0x346)
TI ARM Assembler PC v5.1.7 Thu Oct 02 08:28:40 2014

Tools Copyright (c) 1996-2014 Texas Instruments Incorporated
tasks.asm                                                            PAGE   21

    1101                            .dwattr $C$DW$95, DW_AT_TI_end_column(0x02)
    1102                            .dwendentry
    1103                            .dwendtag $C$DW$95
    1104                    
    1105 000001da                   .sect   ".text"
    1106                            .clink
    1107                            .thumbfunc vTaskStartScheduler
    1108 000001da                   .thumb
    1109                            .global vTaskStartScheduler
    1110                    
    1111                    $C$DW$106       .dwtag  DW_TAG_subprogram, DW_AT_name("vTaskStartScheduler")
    1112                            .dwattr $C$DW$106, DW_AT_low_pc(vTaskStartScheduler)
    1113                            .dwattr $C$DW$106, DW_AT_high_pc(0x00)
    1114                            .dwattr $C$DW$106, DW_AT_TI_symbol_name("vTaskStartScheduler")
    1115                            .dwattr $C$DW$106, DW_AT_external
    1116                            .dwattr $C$DW$106, DW_AT_TI_begin_file("../Source/tasks.c")
    1117                            .dwattr $C$DW$106, DW_AT_TI_begin_line(0x4d0)
    1118                            .dwattr $C$DW$106, DW_AT_TI_begin_column(0x06)
    1119                            .dwattr $C$DW$106, DW_AT_decl_file("../Source/tasks.c")
    1120                            .dwattr $C$DW$106, DW_AT_decl_line(0x4d0)
    1121                            .dwattr $C$DW$106, DW_AT_decl_column(0x06)
    1122                            .dwattr $C$DW$106, DW_AT_TI_max_frame_size(0x18)
    1123                            .dwpsn  file "../Source/tasks.c",line 1233,column 1,is_stmt,address vTaskStartScheduler,isa 1
    1124                    
    1125                            .dwfde $C$DW$CIE, vTaskStartScheduler
    1126                    
    1127                    ;*****************************************************************************
    1128                    ;* FUNCTION NAME: vTaskStartScheduler                                        *
    1129                    ;*                                                                           *
    1130                    ;*   Regs Modified     : A1,A2,A3,A4,V9,SP,LR,SR                             *
    1131                    ;*   Regs Used         : A1,A2,A3,A4,V9,SP,LR,SR                             *
    1132                    ;*   Local Frame Size  : 16 Args + 4 Auto + 4 Save = 24 byte                 *
    1133                    ;*****************************************************************************
    1134 000001da           vTaskStartScheduler:
    1135                    ;* --------------------------------------------------------------------------*
    1136                            .dwcfi  cfa_offset, 0
    1137 000001da B500              PUSH      {LR}                  ; [DPU_3_PIPE]  ; [ORIG 16-BIT INS]
    1138                            .dwcfi  cfa_offset, 4
    1139                            .dwcfi  save_reg_to_mem, 14, -4
    1140 000001dc 0D14F1AD          SUB       SP, SP, #20           ; [DPU_3_PIPE]  ; [KEEP 32-BIT INS]
    1141                            .dwcfi  cfa_offset, 24
    1142                    $C$DW$107       .dwtag  DW_TAG_variable, DW_AT_name("xReturn")
    1143                            .dwattr $C$DW$107, DW_AT_TI_symbol_name("xReturn")
    1144                            .dwattr $C$DW$107, DW_AT_type(*$C$DW$T$12)
    1145                            .dwattr $C$DW$107, DW_AT_location[DW_OP_breg13 16]
    1146                            .dwpsn  file "../Source/tasks.c",line 1246,column 3,is_stmt,isa 1
    1147 000001e0 2000              MOVS      A1, #0                ; [DPU_3_PIPE] |1246|  ; [ORIG 16-BIT INS]
    1148 000001e2 9000              STR       A1, [SP, #0]          ; [DPU_3_PIPE] |1246|  ; [ORIG 16-BIT INS]
    1149 000001e4 2000              MOVS      A1, #0                ; [DPU_3_PIPE] |1246|  ; [ORIG 16-BIT INS]
    1150 000001e6 9001              STR       A1, [SP, #4]          ; [DPU_3_PIPE] |1246|  ; [ORIG 16-BIT INS]
    1151 000001e8 2000              MOVS      A1, #0                ; [DPU_3_PIPE] |1246|  ; [ORIG 16-BIT INS]
    1152 000001ea 9002              STR       A1, [SP, #8]          ; [DPU_3_PIPE] |1246|  ; [ORIG 16-BIT INS]
    1153 000001ec 2000              MOVS      A1, #0                ; [DPU_3_PIPE] |1246|  ; [ORIG 16-BIT INS]
    1154 000001ee 9003              STR       A1, [SP, #12]         ; [DPU_3_PIPE] |1246|  ; [ORIG 16-BIT INS]
    1155 000001f0 4896              LDR       A1, $C$CON9           ; [DPU_3_PIPE] |1246|  ; [ORIG 16-BIT INS]
TI ARM Assembler PC v5.1.7 Thu Oct 02 08:28:40 2014

Tools Copyright (c) 1996-2014 Texas Instruments Incorporated
tasks.asm                                                            PAGE   22

    1156 000001f2 A194              ADR       A2, $C$SL1            ; [DPU_3_PIPE] |1246|  ; [ORIG 16-BIT INS]
    1157 000001f4 2240              MOVS      A3, #64               ; [DPU_3_PIPE] |1246|  ; [ORIG 16-BIT INS]
    1158 000001f6 2300              MOVS      A4, #0                ; [DPU_3_PIPE] |1246|  ; [ORIG 16-BIT INS]
    1159                    $C$DW$108       .dwtag  DW_TAG_TI_branch
    1160                            .dwattr $C$DW$108, DW_AT_low_pc(0x00)
    1161                            .dwattr $C$DW$108, DW_AT_name("xTaskGenericCreate")
    1162                            .dwattr $C$DW$108, DW_AT_TI_call
    1163 000001f8 FF02F7FF          BL        xTaskGenericCreate    ; [DPU_3_PIPE] |1246|  ; [KEEP 32-BIT INS]
    1164                            ; CALL OCCURS {xTaskGenericCreate }  ; [] |1246| 
    1165 000001fc 9004              STR       A1, [SP, #16]         ; [DPU_3_PIPE] |1246|  ; [ORIG 16-BIT INS]
    1166                            .dwpsn  file "../Source/tasks.c",line 1259,column 2,is_stmt,isa 1
    1167 000001fe 9804              LDR       A1, [SP, #16]         ; [DPU_3_PIPE] |1259|  ; [ORIG 16-BIT INS]
    1168 00000200 2801              CMP       A1, #1                ; [DPU_3_PIPE] |1259|  ; [ORIG 16-BIT INS]
    1169 00000202 D10B              BNE       ||$C$L16||            ; [DPU_3_PIPE] |1259|  ; [ORIG 16-BIT INS]
    1170                            ; BRANCHCC OCCURS {||$C$L16||}   ; [] |1259| 
    1171                    ;* --------------------------------------------------------------------------*
    1172                            .dwpsn  file "../Source/tasks.c",line 1269,column 3,is_stmt,isa 1
    1173                    $C$DW$109       .dwtag  DW_TAG_TI_branch
    1174                            .dwattr $C$DW$109, DW_AT_low_pc(0x00)
    1175                            .dwattr $C$DW$109, DW_AT_name("ulPortSetInterruptMask")
    1176                            .dwattr $C$DW$109, DW_AT_TI_call
    1177 00000204 FFFEF7FF!         BL        ulPortSetInterruptMask ; [DPU_3_PIPE] |1269|  ; [KEEP 32-BIT INS]
    1178                            ; CALL OCCURS {ulPortSetInterruptMask }  ; [] |1269| 
    1179                            .dwpsn  file "../Source/tasks.c",line 1271,column 3,is_stmt,isa 1
    1180 00000208 4943              LDR       A2, $C$CON3           ; [DPU_3_PIPE] |1271|  ; [ORIG 16-BIT INS]
    1181 0000020a 2001              MOVS      A1, #1                ; [DPU_3_PIPE] |1271|  ; [ORIG 16-BIT INS]
    1182 0000020c 6008              STR       A1, [A2, #0]          ; [DPU_3_PIPE] |1271|  ; [ORIG 16-BIT INS]
    1183                            .dwpsn  file "../Source/tasks.c",line 1272,column 3,is_stmt,isa 1
    1184 0000020e 4970              LDR       A2, $C$CON8           ; [DPU_3_PIPE] |1272|  ; [ORIG 16-BIT INS]
    1185 00000210 2000              MOVS      A1, #0                ; [DPU_3_PIPE] |1272|  ; [ORIG 16-BIT INS]
    1186 00000212 6008              STR       A1, [A2, #0]          ; [DPU_3_PIPE] |1272|  ; [ORIG 16-BIT INS]
    1187                            .dwpsn  file "../Source/tasks.c",line 1281,column 3,is_stmt,isa 1
    1188                    $C$DW$110       .dwtag  DW_TAG_TI_branch
    1189                            .dwattr $C$DW$110, DW_AT_low_pc(0x00)
    1190                            .dwattr $C$DW$110, DW_AT_name("xPortStartScheduler")
    1191                            .dwattr $C$DW$110, DW_AT_TI_call
    1192 00000214 FFFEF7FF!         BL        xPortStartScheduler   ; [DPU_3_PIPE] |1281|  ; [KEEP 32-BIT INS]
    1193                            ; CALL OCCURS {xPortStartScheduler }  ; [] |1281| 
    1194 00000218 B900              CBNZ      A1, ||$C$L16||        ; []  ; [ORIG 16-BIT INS]
    1195                            ; BRANCHCC OCCURS {||$C$L16||}   ; [] |1281| 
    1196                    ;* --------------------------------------------------------------------------*
    1197                            .dwpsn  file "../Source/tasks.c",line 1285,column 3,is_stmt,isa 1
    1198                            .dwpsn  file "../Source/tasks.c",line 1290,column 2,is_stmt,isa 1
    1199 0000021a E7FF              B         ||$C$L16||            ; [DPU_3_PIPE] |1290|  ; [ORIG 16-BIT INS]
    1200                            ; BRANCH OCCURS {||$C$L16||}     ; [] |1290| 
    1201                    ;* --------------------------------------------------------------------------*
    1202                    ;* --------------------------------------------------------------------------*
    1203 0000021c           ||$C$L16||:    
    1204 0000021c B005              ADD       SP, SP, #20           ; [DPU_3_PIPE]  ; [ORIG 16-BIT INS]
    1205                            .dwcfi  cfa_offset, 4
    1206                    $C$DW$111       .dwtag  DW_TAG_TI_branch
    1207                            .dwattr $C$DW$111, DW_AT_low_pc(0x00)
    1208                            .dwattr $C$DW$111, DW_AT_TI_return
    1209 0000021e BD00              POP       {PC}                  ; [DPU_3_PIPE]  ; [ORIG 16-BIT INS]
    1210                            .dwcfi  cfa_offset, 0
TI ARM Assembler PC v5.1.7 Thu Oct 02 08:28:40 2014

Tools Copyright (c) 1996-2014 Texas Instruments Incorporated
tasks.asm                                                            PAGE   23

    1211                            ; BRANCH OCCURS                  ; [] 
    1212                            .dwattr $C$DW$106, DW_AT_TI_end_file("../Source/tasks.c")
    1213                            .dwattr $C$DW$106, DW_AT_TI_end_line(0x512)
    1214                            .dwattr $C$DW$106, DW_AT_TI_end_column(0x01)
    1215                            .dwendentry
    1216                            .dwendtag $C$DW$106
    1217                    
    1218 00000220                   .sect   ".text"
    1219                            .clink
    1220                            .thumbfunc vTaskEndScheduler
    1221 00000220                   .thumb
    1222                            .global vTaskEndScheduler
    1223                    
    1224                    $C$DW$112       .dwtag  DW_TAG_subprogram, DW_AT_name("vTaskEndScheduler")
    1225                            .dwattr $C$DW$112, DW_AT_low_pc(vTaskEndScheduler)
    1226                            .dwattr $C$DW$112, DW_AT_high_pc(0x00)
    1227                            .dwattr $C$DW$112, DW_AT_TI_symbol_name("vTaskEndScheduler")
    1228                            .dwattr $C$DW$112, DW_AT_external
    1229                            .dwattr $C$DW$112, DW_AT_TI_begin_file("../Source/tasks.c")
    1230                            .dwattr $C$DW$112, DW_AT_TI_begin_line(0x515)
    1231                            .dwattr $C$DW$112, DW_AT_TI_begin_column(0x06)
    1232                            .dwattr $C$DW$112, DW_AT_decl_file("../Source/tasks.c")
    1233                            .dwattr $C$DW$112, DW_AT_decl_line(0x515)
    1234                            .dwattr $C$DW$112, DW_AT_decl_column(0x06)
    1235                            .dwattr $C$DW$112, DW_AT_TI_max_frame_size(0x08)
    1236                            .dwpsn  file "../Source/tasks.c",line 1302,column 1,is_stmt,address vTaskEndScheduler,isa 1
    1237                    
    1238                            .dwfde $C$DW$CIE, vTaskEndScheduler
    1239                    
    1240                    ;*****************************************************************************
    1241                    ;* FUNCTION NAME: vTaskEndScheduler                                          *
    1242                    ;*                                                                           *
    1243                    ;*   Regs Modified     : A1,A2,A3,A4,V9,SP,LR,SR                             *
    1244                    ;*   Regs Used         : A1,A2,A3,A4,V9,SP,LR,SR                             *
    1245                    ;*   Local Frame Size  : 0 Args + 0 Auto + 4 Save = 4 byte                   *
    1246                    ;*****************************************************************************
    1247 00000220           vTaskEndScheduler:
    1248                    ;* --------------------------------------------------------------------------*
    1249                            .dwcfi  cfa_offset, 0
    1250 00000220 B508              PUSH      {A4, LR}              ; [DPU_3_PIPE]  ; [ORIG 16-BIT INS]
    1251                            .dwcfi  cfa_offset, 8
    1252                            .dwcfi  save_reg_to_mem, 14, -4
    1253                            .dwcfi  save_reg_to_mem, 3, -8
    1254                            .dwpsn  file "../Source/tasks.c",line 1306,column 2,is_stmt,isa 1
    1255                    $C$DW$113       .dwtag  DW_TAG_TI_branch
    1256                            .dwattr $C$DW$113, DW_AT_low_pc(0x00)
    1257                            .dwattr $C$DW$113, DW_AT_name("ulPortSetInterruptMask")
    1258                            .dwattr $C$DW$113, DW_AT_TI_call
    1259 00000222 FFFEF7FF!         BL        ulPortSetInterruptMask ; [DPU_3_PIPE] |1306|  ; [KEEP 32-BIT INS]
    1260                            ; CALL OCCURS {ulPortSetInterruptMask }  ; [] |1306| 
    1261                            .dwpsn  file "../Source/tasks.c",line 1307,column 2,is_stmt,isa 1
    1262 00000226 493C              LDR       A2, $C$CON3           ; [DPU_3_PIPE] |1307|  ; [ORIG 16-BIT INS]
    1263 00000228 2000              MOVS      A1, #0                ; [DPU_3_PIPE] |1307|  ; [ORIG 16-BIT INS]
    1264 0000022a 6008              STR       A1, [A2, #0]          ; [DPU_3_PIPE] |1307|  ; [ORIG 16-BIT INS]
    1265                            .dwpsn  file "../Source/tasks.c",line 1308,column 2,is_stmt,isa 1
TI ARM Assembler PC v5.1.7 Thu Oct 02 08:28:40 2014

Tools Copyright (c) 1996-2014 Texas Instruments Incorporated
tasks.asm                                                            PAGE   24

    1266                    $C$DW$114       .dwtag  DW_TAG_TI_branch
    1267                            .dwattr $C$DW$114, DW_AT_low_pc(0x00)
    1268                            .dwattr $C$DW$114, DW_AT_name("vPortEndScheduler")
    1269                            .dwattr $C$DW$114, DW_AT_TI_call
    1270 0000022c FFFEF7FF!         BL        vPortEndScheduler     ; [DPU_3_PIPE] |1308|  ; [KEEP 32-BIT INS]
    1271                            ; CALL OCCURS {vPortEndScheduler }  ; [] |1308| 
    1272                            .dwpsn  file "../Source/tasks.c",line 1309,column 1,is_stmt,isa 1
    1273                    $C$DW$115       .dwtag  DW_TAG_TI_branch
    1274                            .dwattr $C$DW$115, DW_AT_low_pc(0x00)
    1275                            .dwattr $C$DW$115, DW_AT_TI_return
    1276 00000230 BD08              POP       {A4, PC}              ; [DPU_3_PIPE]  ; [ORIG 16-BIT INS]
    1277                            .dwcfi  cfa_offset, 0
    1278                            ; BRANCH OCCURS                  ; [] 
    1279                            .dwattr $C$DW$112, DW_AT_TI_end_file("../Source/tasks.c")
    1280                            .dwattr $C$DW$112, DW_AT_TI_end_line(0x51d)
    1281                            .dwattr $C$DW$112, DW_AT_TI_end_column(0x01)
    1282                            .dwendentry
    1283                            .dwendtag $C$DW$112
    1284                    
    1285 00000232                   .sect   ".text"
    1286                            .clink
    1287                            .thumbfunc vTaskSuspendAll
    1288 00000232                   .thumb
    1289                            .global vTaskSuspendAll
    1290                    
    1291                    $C$DW$116       .dwtag  DW_TAG_subprogram, DW_AT_name("vTaskSuspendAll")
    1292                            .dwattr $C$DW$116, DW_AT_low_pc(vTaskSuspendAll)
    1293                            .dwattr $C$DW$116, DW_AT_high_pc(0x00)
    1294                            .dwattr $C$DW$116, DW_AT_TI_symbol_name("vTaskSuspendAll")
    1295                            .dwattr $C$DW$116, DW_AT_external
    1296                            .dwattr $C$DW$116, DW_AT_TI_begin_file("../Source/tasks.c")
    1297                            .dwattr $C$DW$116, DW_AT_TI_begin_line(0x520)
    1298                            .dwattr $C$DW$116, DW_AT_TI_begin_column(0x06)
    1299                            .dwattr $C$DW$116, DW_AT_decl_file("../Source/tasks.c")
    1300                            .dwattr $C$DW$116, DW_AT_decl_line(0x520)
    1301                            .dwattr $C$DW$116, DW_AT_decl_column(0x06)
    1302                            .dwattr $C$DW$116, DW_AT_TI_max_frame_size(0x00)
    1303                            .dwpsn  file "../Source/tasks.c",line 1313,column 1,is_stmt,address vTaskSuspendAll,isa 1
    1304                    
    1305                            .dwfde $C$DW$CIE, vTaskSuspendAll
    1306                    
    1307                    ;*****************************************************************************
    1308                    ;* FUNCTION NAME: vTaskSuspendAll                                            *
    1309                    ;*                                                                           *
    1310                    ;*   Regs Modified     : A1,A2,SR                                            *
    1311                    ;*   Regs Used         : A1,A2,LR,SR                                         *
    1312                    ;*   Local Frame Size  : 0 Args + 0 Auto + 0 Save = 0 byte                   *
    1313                    ;*****************************************************************************
    1314 00000232           vTaskSuspendAll:
    1315                    ;* --------------------------------------------------------------------------*
    1316                            .dwcfi  cfa_offset, 0
    1317                            .dwpsn  file "../Source/tasks.c",line 1316,column 2,is_stmt,isa 1
    1318 00000232 49A2              LDR       A2, $C$CON10          ; [DPU_3_PIPE] |1316|  ; [ORIG 16-BIT INS]
    1319 00000234 6808              LDR       A1, [A2, #0]          ; [DPU_3_PIPE] |1316|  ; [ORIG 16-BIT INS]
    1320 00000236 1C40              ADDS      A1, A1, #1            ; [DPU_3_PIPE] |1316|  ; [ORIG 16-BIT INS]
TI ARM Assembler PC v5.1.7 Thu Oct 02 08:28:40 2014

Tools Copyright (c) 1996-2014 Texas Instruments Incorporated
tasks.asm                                                            PAGE   25

    1321 00000238 6008              STR       A1, [A2, #0]          ; [DPU_3_PIPE] |1316|  ; [ORIG 16-BIT INS]
    1322                            .dwpsn  file "../Source/tasks.c",line 1317,column 1,is_stmt,isa 1
    1323                    $C$DW$117       .dwtag  DW_TAG_TI_branch
    1324                            .dwattr $C$DW$117, DW_AT_low_pc(0x00)
    1325                            .dwattr $C$DW$117, DW_AT_TI_return
    1326 0000023a 4770              BX        LR                    ; [DPU_3_PIPE]  ; [ORIG 16-BIT INS]
    1327                            ; BRANCH OCCURS                  ; [] 
    1328                            .dwattr $C$DW$116, DW_AT_TI_end_file("../Source/tasks.c")
    1329                            .dwattr $C$DW$116, DW_AT_TI_end_line(0x525)
    1330                            .dwattr $C$DW$116, DW_AT_TI_end_column(0x01)
    1331                            .dwendentry
    1332                            .dwendtag $C$DW$116
    1333                    
    1334 0000023c                   .sect   ".text"
    1335                            .clink
    1336                            .thumbfunc xTaskResumeAll
    1337 0000023c                   .thumb
    1338                            .global xTaskResumeAll
    1339                    
    1340                    $C$DW$118       .dwtag  DW_TAG_subprogram, DW_AT_name("xTaskResumeAll")
    1341                            .dwattr $C$DW$118, DW_AT_low_pc(xTaskResumeAll)
    1342                            .dwattr $C$DW$118, DW_AT_high_pc(0x00)
    1343                            .dwattr $C$DW$118, DW_AT_TI_symbol_name("xTaskResumeAll")
    1344                            .dwattr $C$DW$118, DW_AT_external
    1345                            .dwattr $C$DW$118, DW_AT_type(*$C$DW$T$12)
    1346                            .dwattr $C$DW$118, DW_AT_TI_begin_file("../Source/tasks.c")
    1347                            .dwattr $C$DW$118, DW_AT_TI_begin_line(0x544)
    1348                            .dwattr $C$DW$118, DW_AT_TI_begin_column(0x16)
    1349                            .dwattr $C$DW$118, DW_AT_decl_file("../Source/tasks.c")
    1350                            .dwattr $C$DW$118, DW_AT_decl_line(0x544)
    1351                            .dwattr $C$DW$118, DW_AT_decl_column(0x16)
    1352                            .dwattr $C$DW$118, DW_AT_TI_max_frame_size(0x10)
    1353                            .dwpsn  file "../Source/tasks.c",line 1349,column 1,is_stmt,address xTaskResumeAll,isa 1
    1354                    
    1355                            .dwfde $C$DW$CIE, xTaskResumeAll
    1356                    
    1357                    ;*****************************************************************************
    1358                    ;* FUNCTION NAME: xTaskResumeAll                                             *
    1359                    ;*                                                                           *
    1360                    ;*   Regs Modified     : A1,A2,A3,A4,V1,V9,SP,LR,SR                          *
    1361                    ;*   Regs Used         : A1,A2,A3,A4,V1,V9,SP,LR,SR                          *
    1362                    ;*   Local Frame Size  : 0 Args + 8 Auto + 8 Save = 16 byte                  *
    1363                    ;*****************************************************************************
    1364 0000023c           xTaskResumeAll:
    1365                    ;* --------------------------------------------------------------------------*
    1366                            .dwcfi  cfa_offset, 0
    1367 0000023c B51C              PUSH      {A3, A4, V1, LR}      ; [DPU_3_PIPE]  ; [ORIG 16-BIT INS]
    1368                            .dwcfi  cfa_offset, 16
    1369                            .dwcfi  save_reg_to_mem, 14, -4
    1370                            .dwcfi  save_reg_to_mem, 4, -8
    1371                            .dwcfi  save_reg_to_mem, 3, -12
    1372                            .dwcfi  save_reg_to_mem, 2, -16
    1373                    ;* V1    assigned to pxTCB
    1374                    $C$DW$119       .dwtag  DW_TAG_variable, DW_AT_name("pxTCB")
    1375                            .dwattr $C$DW$119, DW_AT_TI_symbol_name("pxTCB")
TI ARM Assembler PC v5.1.7 Thu Oct 02 08:28:40 2014

Tools Copyright (c) 1996-2014 Texas Instruments Incorporated
tasks.asm                                                            PAGE   26

    1376                            .dwattr $C$DW$119, DW_AT_type(*$C$DW$T$98)
    1377                            .dwattr $C$DW$119, DW_AT_location[DW_OP_reg4]
    1378                    $C$DW$120       .dwtag  DW_TAG_variable, DW_AT_name("xAlreadyYielded")
    1379                            .dwattr $C$DW$120, DW_AT_TI_symbol_name("xAlreadyYielded")
    1380                            .dwattr $C$DW$120, DW_AT_type(*$C$DW$T$12)
    1381                            .dwattr $C$DW$120, DW_AT_location[DW_OP_breg13 0]
    1382                            .dwpsn  file "../Source/tasks.c",line 1351,column 38,is_stmt,isa 1
    1383 0000023e 2000              MOVS      A1, #0                ; [DPU_3_PIPE] |1351|  ; [ORIG 16-BIT INS]
    1384 00000240 9000              STR       A1, [SP, #0]          ; [DPU_3_PIPE] |1351|  ; [ORIG 16-BIT INS]
    1385                            .dwpsn  file "../Source/tasks.c",line 1362,column 2,is_stmt,isa 1
    1386                    $C$DW$121       .dwtag  DW_TAG_TI_branch
    1387                            .dwattr $C$DW$121, DW_AT_low_pc(0x00)
    1388                            .dwattr $C$DW$121, DW_AT_name("vPortEnterCritical")
    1389                            .dwattr $C$DW$121, DW_AT_TI_call
    1390 00000242 FFFEF7FF!         BL        vPortEnterCritical    ; [DPU_3_PIPE] |1362|  ; [KEEP 32-BIT INS]
    1391                            ; CALL OCCURS {vPortEnterCritical }  ; [] |1362| 
    1392                            .dwpsn  file "../Source/tasks.c",line 1364,column 3,is_stmt,isa 1
    1393 00000246 499D              LDR       A2, $C$CON10          ; [DPU_3_PIPE] |1364|  ; [ORIG 16-BIT INS]
    1394 00000248 6808              LDR       A1, [A2, #0]          ; [DPU_3_PIPE] |1364|  ; [ORIG 16-BIT INS]
    1395 0000024a 1E40              SUBS      A1, A1, #1            ; [DPU_3_PIPE] |1364|  ; [ORIG 16-BIT INS]
    1396 0000024c 6008              STR       A1, [A2, #0]          ; [DPU_3_PIPE] |1364|  ; [ORIG 16-BIT INS]
    1397                            .dwpsn  file "../Source/tasks.c",line 1366,column 3,is_stmt,isa 1
    1398 0000024e 489B              LDR       A1, $C$CON10          ; [DPU_3_PIPE] |1366|  ; [ORIG 16-BIT INS]
    1399 00000250 6800              LDR       A1, [A1, #0]          ; [DPU_3_PIPE] |1366|  ; [ORIG 16-BIT INS]
    1400 00000252 2800              CMP       A1, #0                ; [DPU_3_PIPE] |1366|  ; [ORIG 16-BIT INS]
    1401 00000254 D14E              BNE       ||$C$L25||            ; [DPU_3_PIPE] |1366|  ; [ORIG 16-BIT INS]
    1402                            ; BRANCHCC OCCURS {||$C$L25||}   ; [] |1366| 
    1403                    ;* --------------------------------------------------------------------------*
    1404                            .dwpsn  file "../Source/tasks.c",line 1368,column 4,is_stmt,isa 1
    1405 00000256 4829              LDR       A1, $C$CON1           ; [DPU_3_PIPE] |1368|  ; [ORIG 16-BIT INS]
    1406 00000258 6800              LDR       A1, [A1, #0]          ; [DPU_3_PIPE] |1368|  ; [ORIG 16-BIT INS]
    1407 0000025a 2800              CMP       A1, #0                ; [DPU_3_PIPE] |1368|  ; [ORIG 16-BIT INS]
    1408 0000025c D04A              BEQ       ||$C$L25||            ; [DPU_3_PIPE] |1368|  ; [ORIG 16-BIT INS]
    1409                            ; BRANCHCC OCCURS {||$C$L25||}   ; [] |1368| 
    1410                    ;* --------------------------------------------------------------------------*
    1411                    
    1412                    $C$DW$122       .dwtag  DW_TAG_lexical_block, DW_AT_low_pc(0x00), DW_AT_high_pc(0x00)
    1413                    $C$DW$123       .dwtag  DW_TAG_variable, DW_AT_name("xYieldRequired")
    1414                            .dwattr $C$DW$123, DW_AT_TI_symbol_name("xYieldRequired")
    1415                            .dwattr $C$DW$123, DW_AT_type(*$C$DW$T$12)
    1416                            .dwattr $C$DW$123, DW_AT_location[DW_OP_breg13 4]
    1417                            .dwpsn  file "../Source/tasks.c",line 1370,column 34,is_stmt,isa 1
    1418 0000025e 2000              MOVS      A1, #0                ; [DPU_3_PIPE] |1370|  ; [ORIG 16-BIT INS]
    1419 00000260 9001              STR       A1, [SP, #4]          ; [DPU_3_PIPE] |1370|  ; [ORIG 16-BIT INS]
    1420                            .dwpsn  file "../Source/tasks.c",line 1374,column 5,is_stmt,isa 1
    1421 00000262 E022              B         ||$C$L19||            ; [DPU_3_PIPE] |1374|  ; [ORIG 16-BIT INS]
    1422                            ; BRANCH OCCURS {||$C$L19||}     ; [] |1374| 
    1423                    ;* --------------------------------------------------------------------------*
    1424 00000264           ||$C$L17||:    
    1425                            .dwpsn  file "../Source/tasks.c",line 1376,column 6,is_stmt,isa 1
    1426 00000264 48A2              LDR       A1, $C$CON11          ; [DPU_3_PIPE] |1376|  ; [ORIG 16-BIT INS]
    1427 00000266 6800              LDR       A1, [A1, #0]          ; [DPU_3_PIPE] |1376|  ; [ORIG 16-BIT INS]
    1428 00000268 68C4              LDR       V1, [A1, #12]         ; [DPU_3_PIPE] |1376|  ; [ORIG 16-BIT INS]
    1429                            .dwpsn  file "../Source/tasks.c",line 1377,column 6,is_stmt,isa 1
    1430 0000026a 0018F104          ADD       A1, V1, #24           ; [DPU_3_PIPE] |1377|  ; [KEEP 32-BIT INS]
TI ARM Assembler PC v5.1.7 Thu Oct 02 08:28:40 2014

Tools Copyright (c) 1996-2014 Texas Instruments Incorporated
tasks.asm                                                            PAGE   27

    1431                    $C$DW$124       .dwtag  DW_TAG_TI_branch
    1432                            .dwattr $C$DW$124, DW_AT_low_pc(0x00)
    1433                            .dwattr $C$DW$124, DW_AT_name("uxListRemove")
    1434                            .dwattr $C$DW$124, DW_AT_TI_call
    1435 0000026e FFFEF7FF!         BL        uxListRemove          ; [DPU_3_PIPE] |1377|  ; [KEEP 32-BIT INS]
    1436                            ; CALL OCCURS {uxListRemove }    ; [] |1377| 
    1437                            .dwpsn  file "../Source/tasks.c",line 1378,column 6,is_stmt,isa 1
    1438 00000272 1D20              ADDS      A1, V1, #4            ; [DPU_3_PIPE] |1378|  ; [ORIG 16-BIT INS]
    1439                    $C$DW$125       .dwtag  DW_TAG_TI_branch
    1440                            .dwattr $C$DW$125, DW_AT_low_pc(0x00)
    1441                            .dwattr $C$DW$125, DW_AT_name("uxListRemove")
    1442                            .dwattr $C$DW$125, DW_AT_TI_call
    1443 00000274 FFFEF7FF!         BL        uxListRemove          ; [DPU_3_PIPE] |1378|  ; [KEEP 32-BIT INS]
    1444                            ; CALL OCCURS {uxListRemove }    ; [] |1378| 
    1445                            .dwpsn  file "../Source/tasks.c",line 1379,column 6,is_stmt,isa 1
    1446 00000278 4832              LDR       A1, $C$CON6           ; [DPU_3_PIPE] |1379|  ; [ORIG 16-BIT INS]
    1447 0000027a 6AE1              LDR       A2, [V1, #44]         ; [DPU_3_PIPE] |1379|  ; [ORIG 16-BIT INS]
    1448 0000027c 6800              LDR       A1, [A1, #0]          ; [DPU_3_PIPE] |1379|  ; [ORIG 16-BIT INS]
    1449 0000027e 4288              CMP       A1, A2                ; [DPU_3_PIPE] |1379|  ; [ORIG 16-BIT INS]
    1450 00000280 D202              BCS       ||$C$L18||            ; [DPU_3_PIPE] |1379|  ; [ORIG 16-BIT INS]
    1451                            ; BRANCHCC OCCURS {||$C$L18||}   ; [] |1379| 
    1452                    ;* --------------------------------------------------------------------------*
    1453 00000282 6AE0              LDR       A1, [V1, #44]         ; [DPU_3_PIPE] |1379|  ; [ORIG 16-BIT INS]
    1454 00000284 492F              LDR       A2, $C$CON6           ; [DPU_3_PIPE] |1379|  ; [ORIG 16-BIT INS]
    1455 00000286 6008              STR       A1, [A2, #0]          ; [DPU_3_PIPE] |1379|  ; [ORIG 16-BIT INS]
    1456                    ;* --------------------------------------------------------------------------*
    1457 00000288           ||$C$L18||:    
    1458 00000288 6AE1              LDR       A2, [V1, #44]         ; [DPU_3_PIPE] |1379|  ; [ORIG 16-BIT INS]
    1459 0000028a 482F              LDR       A1, $C$CON7           ; [DPU_3_PIPE] |1379|  ; [ORIG 16-BIT INS]
    1460 0000028c 008A              LSLS      A3, A2, #2            ; [DPU_3_PIPE] |1379|  ; [ORIG 16-BIT INS]
    1461 0000028e 1201EB02          ADD       A3, A3, A2, LSL #4    ; [DPU_3_PIPE] |1379|  ; [KEEP 32-BIT INS]
    1462 00000292 1D21              ADDS      A2, V1, #4            ; [DPU_3_PIPE] |1379|  ; [ORIG 16-BIT INS]
    1463 00000294 1880              ADDS      A1, A1, A3            ; [DPU_3_PIPE] |1379|  ; [ORIG 16-BIT INS]
    1464                    $C$DW$126       .dwtag  DW_TAG_TI_branch
    1465                            .dwattr $C$DW$126, DW_AT_low_pc(0x00)
    1466                            .dwattr $C$DW$126, DW_AT_name("vListInsertEnd")
    1467                            .dwattr $C$DW$126, DW_AT_TI_call
    1468 00000296 FFFEF7FF!         BL        vListInsertEnd        ; [DPU_3_PIPE] |1379|  ; [KEEP 32-BIT INS]
    1469                            ; CALL OCCURS {vListInsertEnd }  ; [] |1379| 
    1470                            .dwpsn  file "../Source/tasks.c",line 1383,column 6,is_stmt,isa 1
    1471 0000029a 4819              LDR       A1, $C$CON2           ; [DPU_3_PIPE] |1383|  ; [ORIG 16-BIT INS]
    1472 0000029c 6800              LDR       A1, [A1, #0]          ; [DPU_3_PIPE] |1383|  ; [ORIG 16-BIT INS]
    1473 0000029e 6AE1              LDR       A2, [V1, #44]         ; [DPU_3_PIPE] |1383|  ; [ORIG 16-BIT INS]
    1474 000002a0 6AC0              LDR       A1, [A1, #44]         ; [DPU_3_PIPE] |1383|  ; [ORIG 16-BIT INS]
    1475 000002a2 4288              CMP       A1, A2                ; [DPU_3_PIPE] |1383|  ; [ORIG 16-BIT INS]
    1476 000002a4 D801              BHI       ||$C$L19||            ; [DPU_3_PIPE] |1383|  ; [ORIG 16-BIT INS]
    1477                            ; BRANCHCC OCCURS {||$C$L19||}   ; [] |1383| 
    1478                    ;* --------------------------------------------------------------------------*
    1479                            .dwpsn  file "../Source/tasks.c",line 1385,column 7,is_stmt,isa 1
    1480 000002a6 2001              MOVS      A1, #1                ; [DPU_3_PIPE] |1385|  ; [ORIG 16-BIT INS]
    1481 000002a8 9001              STR       A1, [SP, #4]          ; [DPU_3_PIPE] |1385|  ; [ORIG 16-BIT INS]
    1482                    ;* --------------------------------------------------------------------------*
    1483                    ;*   BEGIN LOOP ||$C$L19||
    1484                    ;* --------------------------------------------------------------------------*
    1485 000002aa           ||$C$L19||:    
TI ARM Assembler PC v5.1.7 Thu Oct 02 08:28:40 2014

Tools Copyright (c) 1996-2014 Texas Instruments Incorporated
tasks.asm                                                            PAGE   28

    1486                            .dwpsn  file "../Source/tasks.c",line 1374,column 12,is_stmt,isa 1
    1487 000002aa 4892              LDR       A1, $C$CON12          ; [DPU_3_PIPE] |1374|  ; [ORIG 16-BIT INS]
    1488 000002ac 6801              LDR       A2, [A1, #0]          ; [DPU_3_PIPE] |1374|  ; [ORIG 16-BIT INS]
    1489 000002ae 2000              MOVS      A1, #0                ; [DPU_3_PIPE] |1374|  ; [ORIG 16-BIT INS]
    1490 000002b0 B901              CBNZ      A2, ||$C$L20||        ; []  ; [ORIG 16-BIT INS]
    1491                            ; BRANCHCC OCCURS {||$C$L20||}   ; [] |1374| 
    1492                    ;* --------------------------------------------------------------------------*
    1493 000002b2 2001              MOVS      A1, #1                ; [DPU_3_PIPE] |1374|  ; [ORIG 16-BIT INS]
    1494                    ;* --------------------------------------------------------------------------*
    1495 000002b4           ||$C$L20||:    
    1496 000002b4 2800              CMP       A1, #0                ; [DPU_3_PIPE] |1374|  ; [ORIG 16-BIT INS]
    1497 000002b6 D0D5              BEQ       ||$C$L17||            ; [DPU_3_PIPE] |1374|  ; [ORIG 16-BIT INS]
    1498                            ; BRANCHCC OCCURS {||$C$L17||}   ; [] |1374| 
    1499                    ;* --------------------------------------------------------------------------*
    1500                            .dwpsn  file "../Source/tasks.c",line 1392,column 5,is_stmt,isa 1
    1501 000002b8 488F              LDR       A1, $C$CON13          ; [DPU_3_PIPE] |1392|  ; [ORIG 16-BIT INS]
    1502 000002ba 6800              LDR       A1, [A1, #0]          ; [DPU_3_PIPE] |1392|  ; [ORIG 16-BIT INS]
    1503 000002bc B160              CBZ       A1, ||$C$L22||        ; []  ; [ORIG 16-BIT INS]
    1504                            ; BRANCHCC OCCURS {||$C$L22||}   ; [] |1392| 
    1505                    ;* --------------------------------------------------------------------------*
    1506                            .dwpsn  file "../Source/tasks.c",line 1394,column 13,is_stmt,isa 1
    1507 000002be 488E              LDR       A1, $C$CON13          ; [DPU_3_PIPE] |1394|  ; [ORIG 16-BIT INS]
    1508 000002c0 6800              LDR       A1, [A1, #0]          ; [DPU_3_PIPE] |1394|  ; [ORIG 16-BIT INS]
    1509 000002c2 B148              CBZ       A1, ||$C$L22||        ; []  ; [ORIG 16-BIT INS]
    1510                            ; BRANCHCC OCCURS {||$C$L22||}   ; [] |1394| 
    1511                    ;* --------------------------------------------------------------------------*
    1512                    ;*   BEGIN LOOP ||$C$L21||
    1513                    ;*
    1514                    ;*   Loop source line                : 1394
    1515                    ;*   Loop closing brace source line  : 1398
    1516                    ;*   Known Minimum Trip Count        : 1
    1517                    ;*   Known Maximum Trip Count        : 4294967295
    1518                    ;*   Known Max Trip Count Factor     : 1
    1519                    ;* --------------------------------------------------------------------------*
    1520 000002c4           ||$C$L21||:    
    1521                            .dwpsn  file "../Source/tasks.c",line 1396,column 7,is_stmt,isa 1
    1522                    $C$DW$127       .dwtag  DW_TAG_TI_branch
    1523                            .dwattr $C$DW$127, DW_AT_low_pc(0x00)
    1524                            .dwattr $C$DW$127, DW_AT_name("vTaskIncrementTick")
    1525                            .dwattr $C$DW$127, DW_AT_TI_call
    1526 000002c4 F842F000          BL        vTaskIncrementTick    ; [DPU_3_PIPE] |1396|  ; [KEEP 32-BIT INS]
    1527                            ; CALL OCCURS {vTaskIncrementTick }  ; [] |1396| 
    1528                            .dwpsn  file "../Source/tasks.c",line 1397,column 7,is_stmt,isa 1
    1529 000002c8 498B              LDR       A2, $C$CON13          ; [DPU_3_PIPE] |1397|  ; [ORIG 16-BIT INS]
    1530 000002ca 6808              LDR       A1, [A2, #0]          ; [DPU_3_PIPE] |1397|  ; [ORIG 16-BIT INS]
    1531 000002cc 1E40              SUBS      A1, A1, #1            ; [DPU_3_PIPE] |1397|  ; [ORIG 16-BIT INS]
    1532 000002ce 6008              STR       A1, [A2, #0]          ; [DPU_3_PIPE] |1397|  ; [ORIG 16-BIT INS]
    1533                            .dwpsn  file "../Source/tasks.c",line 1394,column 13,is_stmt,isa 1
    1534 000002d0 4889              LDR       A1, $C$CON13          ; [DPU_3_PIPE] |1394|  ; [ORIG 16-BIT INS]
    1535 000002d2 6800              LDR       A1, [A1, #0]          ; [DPU_3_PIPE] |1394|  ; [ORIG 16-BIT INS]
    1536 000002d4 2800              CMP       A1, #0                ; [DPU_3_PIPE] |1394|  ; [ORIG 16-BIT INS]
    1537 000002d6 D1F5              BNE       ||$C$L21||            ; [DPU_3_PIPE] |1394|  ; [ORIG 16-BIT INS]
    1538                            ; BRANCHCC OCCURS {||$C$L21||}   ; [] |1394| 
    1539                    ;* --------------------------------------------------------------------------*
    1540 000002d8           ||$C$L22||:    
TI ARM Assembler PC v5.1.7 Thu Oct 02 08:28:40 2014

Tools Copyright (c) 1996-2014 Texas Instruments Incorporated
tasks.asm                                                            PAGE   29

    1541                            .dwpsn  file "../Source/tasks.c",line 1410,column 5,is_stmt,isa 1
    1542 000002d8 9801              LDR       A1, [SP, #4]          ; [DPU_3_PIPE] |1410|  ; [ORIG 16-BIT INS]
    1543 000002da 2801              CMP       A1, #1                ; [DPU_3_PIPE] |1410|  ; [ORIG 16-BIT INS]
    1544 000002dc D003              BEQ       ||$C$L23||            ; [DPU_3_PIPE] |1410|  ; [ORIG 16-BIT INS]
    1545                            ; BRANCHCC OCCURS {||$C$L23||}   ; [] |1410| 
    1546                    ;* --------------------------------------------------------------------------*
    1547 000002de 48AB              LDR       A1, $C$CON14          ; [DPU_3_PIPE] |1410|  ; [ORIG 16-BIT INS]
    1548 000002e0 6800              LDR       A1, [A1, #0]          ; [DPU_3_PIPE] |1410|  ; [ORIG 16-BIT INS]
    1549 000002e2 2801              CMP       A1, #1                ; [DPU_3_PIPE] |1410|  ; [ORIG 16-BIT INS]
    1550 000002e4 D106              BNE       ||$C$L24||            ; [DPU_3_PIPE] |1410|  ; [ORIG 16-BIT INS]
    1551                            ; BRANCHCC OCCURS {||$C$L24||}   ; [] |1410| 
    1552                    ;* --------------------------------------------------------------------------*
    1553 000002e6           ||$C$L23||:    
    1554                            .dwpsn  file "../Source/tasks.c",line 1412,column 6,is_stmt,isa 1
    1555 000002e6 2001              MOVS      A1, #1                ; [DPU_3_PIPE] |1412|  ; [ORIG 16-BIT INS]
    1556 000002e8 9000              STR       A1, [SP, #0]          ; [DPU_3_PIPE] |1412|  ; [ORIG 16-BIT INS]
    1557                            .dwpsn  file "../Source/tasks.c",line 1413,column 6,is_stmt,isa 1
    1558 000002ea 49A8              LDR       A2, $C$CON14          ; [DPU_3_PIPE] |1413|  ; [ORIG 16-BIT INS]
    1559 000002ec 2000              MOVS      A1, #0                ; [DPU_3_PIPE] |1413|  ; [ORIG 16-BIT INS]
    1560 000002ee 6008              STR       A1, [A2, #0]          ; [DPU_3_PIPE] |1413|  ; [ORIG 16-BIT INS]
    1561                            .dwpsn  file "../Source/tasks.c",line 1414,column 6,is_stmt,isa 1
    1562                    $C$DW$128       .dwtag  DW_TAG_TI_branch
    1563                            .dwattr $C$DW$128, DW_AT_low_pc(0x00)
    1564                            .dwattr $C$DW$128, DW_AT_name("vPortYieldFromISR")
    1565                            .dwattr $C$DW$128, DW_AT_TI_call
    1566 000002f0 FFFEF7FF!         BL        vPortYieldFromISR     ; [DPU_3_PIPE] |1414|  ; [KEEP 32-BIT INS]
    1567                            ; CALL OCCURS {vPortYieldFromISR }  ; [] |1414| 
    1568                    ;* --------------------------------------------------------------------------*
    1569                    ||$C$L24||:    
    1570                            .dwendtag $C$DW$122
    1571                    
    1572                    ;* --------------------------------------------------------------------------*
    1573 000002f4           ||$C$L25||:    
    1574                            .dwpsn  file "../Source/tasks.c",line 1419,column 2,is_stmt,isa 1
    1575                    $C$DW$129       .dwtag  DW_TAG_TI_branch
    1576                            .dwattr $C$DW$129, DW_AT_low_pc(0x00)
    1577                            .dwattr $C$DW$129, DW_AT_name("vPortExitCritical")
    1578                            .dwattr $C$DW$129, DW_AT_TI_call
    1579 000002f4 FFFEF7FF!         BL        vPortExitCritical     ; [DPU_3_PIPE] |1419|  ; [KEEP 32-BIT INS]
    1580                            ; CALL OCCURS {vPortExitCritical }  ; [] |1419| 
    1581                            .dwpsn  file "../Source/tasks.c",line 1421,column 2,is_stmt,isa 1
    1582 000002f8 9800              LDR       A1, [SP, #0]          ; [DPU_3_PIPE] |1421|  ; [ORIG 16-BIT INS]
    1583                            .dwpsn  file "../Source/tasks.c",line 1422,column 1,is_stmt,isa 1
    1584                    $C$DW$130       .dwtag  DW_TAG_TI_branch
    1585                            .dwattr $C$DW$130, DW_AT_low_pc(0x00)
    1586                            .dwattr $C$DW$130, DW_AT_TI_return
    1587 000002fa BD1C              POP       {A3, A4, V1, PC}      ; [DPU_3_PIPE]  ; [ORIG 16-BIT INS]
    1588                            .dwcfi  cfa_offset, 0
    1589                            ; BRANCH OCCURS                  ; [] 
    1590                            .dwattr $C$DW$118, DW_AT_TI_end_file("../Source/tasks.c")
    1591                            .dwattr $C$DW$118, DW_AT_TI_end_line(0x58e)
    1592                            .dwattr $C$DW$118, DW_AT_TI_end_column(0x01)
    1593                            .dwendentry
    1594                            .dwendtag $C$DW$118
    1595                    
TI ARM Assembler PC v5.1.7 Thu Oct 02 08:28:40 2014

Tools Copyright (c) 1996-2014 Texas Instruments Incorporated
tasks.asm                                                            PAGE   30

    1596                    ;******************************************************************************
    1597                    ;* CONSTANT TABLE                                                             *
    1598                    ;******************************************************************************
    1599 000002fc                   .sect   ".text"
    1600                            .align  4
    1601 000002fc 00000000! ||$C$CON1||:    .bits   uxCurrentNumberOfTasks,32
    1602                            .align  4
    1603 00000300 00000000! ||$C$CON2||:    .bits   pxCurrentTCB,32
    1604 00000304                   .sect   ".text"
    1605                            .clink
    1606                            .thumbfunc xTaskGetTickCount
    1607 00000304                   .thumb
    1608                            .global xTaskGetTickCount
    1609                    
    1610                    $C$DW$131       .dwtag  DW_TAG_subprogram, DW_AT_name("xTaskGetTickCount")
    1611                            .dwattr $C$DW$131, DW_AT_low_pc(xTaskGetTickCount)
    1612                            .dwattr $C$DW$131, DW_AT_high_pc(0x00)
    1613                            .dwattr $C$DW$131, DW_AT_TI_symbol_name("xTaskGetTickCount")
    1614                            .dwattr $C$DW$131, DW_AT_external
    1615                            .dwattr $C$DW$131, DW_AT_type(*$C$DW$T$36)
    1616                            .dwattr $C$DW$131, DW_AT_TI_begin_file("../Source/tasks.c")
    1617                            .dwattr $C$DW$131, DW_AT_TI_begin_line(0x591)
    1618                            .dwattr $C$DW$131, DW_AT_TI_begin_column(0x0e)
    1619                            .dwattr $C$DW$131, DW_AT_decl_file("../Source/tasks.c")
    1620                            .dwattr $C$DW$131, DW_AT_decl_line(0x591)
    1621                            .dwattr $C$DW$131, DW_AT_decl_column(0x0e)
    1622                            .dwattr $C$DW$131, DW_AT_TI_max_frame_size(0x08)
    1623                            .dwpsn  file "../Source/tasks.c",line 1426,column 1,is_stmt,address xTaskGetTickCount,isa 1
    1624                    
    1625                            .dwfde $C$DW$CIE, xTaskGetTickCount
    1626                    
    1627                    ;*****************************************************************************
    1628                    ;* FUNCTION NAME: xTaskGetTickCount                                          *
    1629                    ;*                                                                           *
    1630                    ;*   Regs Modified     : A1,A2,A3,A4,V9,SP,LR,SR                             *
    1631                    ;*   Regs Used         : A1,A2,A3,A4,V9,SP,LR,SR                             *
    1632                    ;*   Local Frame Size  : 0 Args + 4 Auto + 4 Save = 8 byte                   *
    1633                    ;*****************************************************************************
    1634 00000304           xTaskGetTickCount:
    1635                    ;* --------------------------------------------------------------------------*
    1636                            .dwcfi  cfa_offset, 0
    1637 00000304 B508              PUSH      {A4, LR}              ; [DPU_3_PIPE]  ; [ORIG 16-BIT INS]
    1638                            .dwcfi  cfa_offset, 8
    1639                            .dwcfi  save_reg_to_mem, 14, -4
    1640                            .dwcfi  save_reg_to_mem, 3, -8
    1641                    $C$DW$132       .dwtag  DW_TAG_variable, DW_AT_name("xTicks")
    1642                            .dwattr $C$DW$132, DW_AT_TI_symbol_name("xTicks")
    1643                            .dwattr $C$DW$132, DW_AT_type(*$C$DW$T$36)
    1644                            .dwattr $C$DW$132, DW_AT_location[DW_OP_breg13 0]
    1645                            .dwpsn  file "../Source/tasks.c",line 1430,column 2,is_stmt,isa 1
    1646                    $C$DW$133       .dwtag  DW_TAG_TI_branch
    1647                            .dwattr $C$DW$133, DW_AT_low_pc(0x00)
    1648                            .dwattr $C$DW$133, DW_AT_name("vPortEnterCritical")
    1649                            .dwattr $C$DW$133, DW_AT_TI_call
    1650 00000306 FFFEF7FF!         BL        vPortEnterCritical    ; [DPU_3_PIPE] |1430|  ; [KEEP 32-BIT INS]
TI ARM Assembler PC v5.1.7 Thu Oct 02 08:28:40 2014

Tools Copyright (c) 1996-2014 Texas Instruments Incorporated
tasks.asm                                                            PAGE   31

    1651                            ; CALL OCCURS {vPortEnterCritical }  ; [] |1430| 
    1652                            .dwpsn  file "../Source/tasks.c",line 1432,column 3,is_stmt,isa 1
    1653 0000030a 4831              LDR       A1, $C$CON8           ; [DPU_3_PIPE] |1432|  ; [ORIG 16-BIT INS]
    1654 0000030c 6800              LDR       A1, [A1, #0]          ; [DPU_3_PIPE] |1432|  ; [ORIG 16-BIT INS]
    1655 0000030e 9000              STR       A1, [SP, #0]          ; [DPU_3_PIPE] |1432|  ; [ORIG 16-BIT INS]
    1656                            .dwpsn  file "../Source/tasks.c",line 1434,column 2,is_stmt,isa 1
    1657                    $C$DW$134       .dwtag  DW_TAG_TI_branch
    1658                            .dwattr $C$DW$134, DW_AT_low_pc(0x00)
    1659                            .dwattr $C$DW$134, DW_AT_name("vPortExitCritical")
    1660                            .dwattr $C$DW$134, DW_AT_TI_call
    1661 00000310 FFFEF7FF!         BL        vPortExitCritical     ; [DPU_3_PIPE] |1434|  ; [KEEP 32-BIT INS]
    1662                            ; CALL OCCURS {vPortExitCritical }  ; [] |1434| 
    1663                            .dwpsn  file "../Source/tasks.c",line 1436,column 2,is_stmt,isa 1
    1664 00000314 9800              LDR       A1, [SP, #0]          ; [DPU_3_PIPE] |1436|  ; [ORIG 16-BIT INS]
    1665                            .dwpsn  file "../Source/tasks.c",line 1437,column 1,is_stmt,isa 1
    1666                    $C$DW$135       .dwtag  DW_TAG_TI_branch
    1667                            .dwattr $C$DW$135, DW_AT_low_pc(0x00)
    1668                            .dwattr $C$DW$135, DW_AT_TI_return
    1669 00000316 BD08              POP       {A4, PC}              ; [DPU_3_PIPE]  ; [ORIG 16-BIT INS]
    1670                            .dwcfi  cfa_offset, 0
    1671                            ; BRANCH OCCURS                  ; [] 
    1672                            .dwattr $C$DW$131, DW_AT_TI_end_file("../Source/tasks.c")
    1673                            .dwattr $C$DW$131, DW_AT_TI_end_line(0x59d)
    1674                            .dwattr $C$DW$131, DW_AT_TI_end_column(0x01)
    1675                            .dwendentry
    1676                            .dwendtag $C$DW$131
    1677                    
    1678                    ;******************************************************************************
    1679                    ;* CONSTANT TABLE                                                             *
    1680                    ;******************************************************************************
    1681 00000318                   .sect   ".text"
    1682                            .align  4
    1683 00000318 00000000! ||$C$CON3||:    .bits   xSchedulerRunning,32
    1684 0000031c                   .sect   ".text"
    1685                            .clink
    1686                            .thumbfunc xTaskGetTickCountFromISR
    1687 0000031c                   .thumb
    1688                            .global xTaskGetTickCountFromISR
    1689                    
    1690                    $C$DW$136       .dwtag  DW_TAG_subprogram, DW_AT_name("xTaskGetTickCountFromISR")
    1691                            .dwattr $C$DW$136, DW_AT_low_pc(xTaskGetTickCountFromISR)
    1692                            .dwattr $C$DW$136, DW_AT_high_pc(0x00)
    1693                            .dwattr $C$DW$136, DW_AT_TI_symbol_name("xTaskGetTickCountFromISR")
    1694                            .dwattr $C$DW$136, DW_AT_external
    1695                            .dwattr $C$DW$136, DW_AT_type(*$C$DW$T$36)
    1696                            .dwattr $C$DW$136, DW_AT_TI_begin_file("../Source/tasks.c")
    1697                            .dwattr $C$DW$136, DW_AT_TI_begin_line(0x5a0)
    1698                            .dwattr $C$DW$136, DW_AT_TI_begin_column(0x0e)
    1699                            .dwattr $C$DW$136, DW_AT_decl_file("../Source/tasks.c")
    1700                            .dwattr $C$DW$136, DW_AT_decl_line(0x5a0)
    1701                            .dwattr $C$DW$136, DW_AT_decl_column(0x0e)
    1702                            .dwattr $C$DW$136, DW_AT_TI_max_frame_size(0x10)
    1703                            .dwpsn  file "../Source/tasks.c",line 1441,column 1,is_stmt,address xTaskGetTickCountFromISR,i
    1704                    
    1705                            .dwfde $C$DW$CIE, xTaskGetTickCountFromISR
TI ARM Assembler PC v5.1.7 Thu Oct 02 08:28:40 2014

Tools Copyright (c) 1996-2014 Texas Instruments Incorporated
tasks.asm                                                            PAGE   32

    1706                    
    1707                    ;*****************************************************************************
    1708                    ;* FUNCTION NAME: xTaskGetTickCountFromISR                                   *
    1709                    ;*                                                                           *
    1710                    ;*   Regs Modified     : A1,A2,A3,A4,V9,SP,LR,SR                             *
    1711                    ;*   Regs Used         : A1,A2,A3,A4,V9,SP,LR,SR                             *
    1712                    ;*   Local Frame Size  : 0 Args + 8 Auto + 4 Save = 12 byte                  *
    1713                    ;*****************************************************************************
    1714 0000031c           xTaskGetTickCountFromISR:
    1715                    ;* --------------------------------------------------------------------------*
    1716                            .dwcfi  cfa_offset, 0
    1717 0000031c B50E              PUSH      {A2, A3, A4, LR}      ; [DPU_3_PIPE]  ; [ORIG 16-BIT INS]
    1718                            .dwcfi  cfa_offset, 16
    1719                            .dwcfi  save_reg_to_mem, 14, -4
    1720                            .dwcfi  save_reg_to_mem, 3, -8
    1721                            .dwcfi  save_reg_to_mem, 2, -12
    1722                            .dwcfi  save_reg_to_mem, 1, -16
    1723                    $C$DW$137       .dwtag  DW_TAG_variable, DW_AT_name("xReturn")
    1724                            .dwattr $C$DW$137, DW_AT_TI_symbol_name("xReturn")
    1725                            .dwattr $C$DW$137, DW_AT_type(*$C$DW$T$36)
    1726                            .dwattr $C$DW$137, DW_AT_location[DW_OP_breg13 0]
    1727                    $C$DW$138       .dwtag  DW_TAG_variable, DW_AT_name("uxSavedInterruptStatus")
    1728                            .dwattr $C$DW$138, DW_AT_TI_symbol_name("uxSavedInterruptStatus")
    1729                            .dwattr $C$DW$138, DW_AT_type(*$C$DW$T$13)
    1730                            .dwattr $C$DW$138, DW_AT_location[DW_OP_breg13 4]
    1731                            .dwpsn  file "../Source/tasks.c",line 1445,column 2,is_stmt,isa 1
    1732                    $C$DW$139       .dwtag  DW_TAG_TI_branch
    1733                            .dwattr $C$DW$139, DW_AT_low_pc(0x00)
    1734                            .dwattr $C$DW$139, DW_AT_name("ulPortSetInterruptMask")
    1735                            .dwattr $C$DW$139, DW_AT_TI_call
    1736 0000031e FFFEF7FF!         BL        ulPortSetInterruptMask ; [DPU_3_PIPE] |1445|  ; [KEEP 32-BIT INS]
    1737                            ; CALL OCCURS {ulPortSetInterruptMask }  ; [] |1445| 
    1738 00000322 9001              STR       A1, [SP, #4]          ; [DPU_3_PIPE] |1445|  ; [ORIG 16-BIT INS]
    1739                            .dwpsn  file "../Source/tasks.c",line 1446,column 2,is_stmt,isa 1
    1740 00000324 482A              LDR       A1, $C$CON8           ; [DPU_3_PIPE] |1446|  ; [ORIG 16-BIT INS]
    1741 00000326 6800              LDR       A1, [A1, #0]          ; [DPU_3_PIPE] |1446|  ; [ORIG 16-BIT INS]
    1742 00000328 9000              STR       A1, [SP, #0]          ; [DPU_3_PIPE] |1446|  ; [ORIG 16-BIT INS]
    1743                            .dwpsn  file "../Source/tasks.c",line 1447,column 2,is_stmt,isa 1
    1744 0000032a 9801              LDR       A1, [SP, #4]          ; [DPU_3_PIPE] |1447|  ; [ORIG 16-BIT INS]
    1745                    $C$DW$140       .dwtag  DW_TAG_TI_branch
    1746                            .dwattr $C$DW$140, DW_AT_low_pc(0x00)
    1747                            .dwattr $C$DW$140, DW_AT_name("vPortClearInterruptMask")
    1748                            .dwattr $C$DW$140, DW_AT_TI_call
    1749 0000032c FFFEF7FF!         BL        vPortClearInterruptMask ; [DPU_3_PIPE] |1447|  ; [KEEP 32-BIT INS]
    1750                            ; CALL OCCURS {vPortClearInterruptMask }  ; [] |1447| 
    1751                            .dwpsn  file "../Source/tasks.c",line 1449,column 2,is_stmt,isa 1
    1752 00000330 9800              LDR       A1, [SP, #0]          ; [DPU_3_PIPE] |1449|  ; [ORIG 16-BIT INS]
    1753                            .dwpsn  file "../Source/tasks.c",line 1450,column 1,is_stmt,isa 1
    1754                    $C$DW$141       .dwtag  DW_TAG_TI_branch
    1755                            .dwattr $C$DW$141, DW_AT_low_pc(0x00)
    1756                            .dwattr $C$DW$141, DW_AT_TI_return
    1757 00000332 BD0E              POP       {A2, A3, A4, PC}      ; [DPU_3_PIPE]  ; [ORIG 16-BIT INS]
    1758                            .dwcfi  cfa_offset, 0
    1759                            ; BRANCH OCCURS                  ; [] 
    1760                            .dwattr $C$DW$136, DW_AT_TI_end_file("../Source/tasks.c")
TI ARM Assembler PC v5.1.7 Thu Oct 02 08:28:40 2014

Tools Copyright (c) 1996-2014 Texas Instruments Incorporated
tasks.asm                                                            PAGE   33

    1761                            .dwattr $C$DW$136, DW_AT_TI_end_line(0x5aa)
    1762                            .dwattr $C$DW$136, DW_AT_TI_end_column(0x01)
    1763                            .dwendentry
    1764                            .dwendtag $C$DW$136
    1765                    
    1766 00000334                   .sect   ".text"
    1767                            .clink
    1768                            .thumbfunc uxTaskGetNumberOfTasks
    1769 00000334                   .thumb
    1770                            .global uxTaskGetNumberOfTasks
    1771                    
    1772                    $C$DW$142       .dwtag  DW_TAG_subprogram, DW_AT_name("uxTaskGetNumberOfTasks")
    1773                            .dwattr $C$DW$142, DW_AT_low_pc(uxTaskGetNumberOfTasks)
    1774                            .dwattr $C$DW$142, DW_AT_high_pc(0x00)
    1775                            .dwattr $C$DW$142, DW_AT_TI_symbol_name("uxTaskGetNumberOfTasks")
    1776                            .dwattr $C$DW$142, DW_AT_external
    1777                            .dwattr $C$DW$142, DW_AT_type(*$C$DW$T$13)
    1778                            .dwattr $C$DW$142, DW_AT_TI_begin_file("../Source/tasks.c")
    1779                            .dwattr $C$DW$142, DW_AT_TI_begin_line(0x5ad)
    1780                            .dwattr $C$DW$142, DW_AT_TI_begin_column(0x18)
    1781                            .dwattr $C$DW$142, DW_AT_decl_file("../Source/tasks.c")
    1782                            .dwattr $C$DW$142, DW_AT_decl_line(0x5ad)
    1783                            .dwattr $C$DW$142, DW_AT_decl_column(0x18)
    1784                            .dwattr $C$DW$142, DW_AT_TI_max_frame_size(0x00)
    1785                            .dwpsn  file "../Source/tasks.c",line 1454,column 1,is_stmt,address uxTaskGetNumberOfTasks,isa
    1786                    
    1787                            .dwfde $C$DW$CIE, uxTaskGetNumberOfTasks
    1788                    
    1789                    ;*****************************************************************************
    1790                    ;* FUNCTION NAME: uxTaskGetNumberOfTasks                                     *
    1791                    ;*                                                                           *
    1792                    ;*   Regs Modified     : A1                                                  *
    1793                    ;*   Regs Used         : A1,LR                                               *
    1794                    ;*   Local Frame Size  : 0 Args + 0 Auto + 0 Save = 0 byte                   *
    1795                    ;*****************************************************************************
    1796 00000334           uxTaskGetNumberOfTasks:
    1797                    ;* --------------------------------------------------------------------------*
    1798                            .dwcfi  cfa_offset, 0
    1799                            .dwpsn  file "../Source/tasks.c",line 1457,column 2,is_stmt,isa 1
    1800 00000334 4896              LDR       A1, $C$CON15          ; [DPU_3_PIPE] |1457|  ; [ORIG 16-BIT INS]
    1801 00000336 6800              LDR       A1, [A1, #0]          ; [DPU_3_PIPE] |1457|  ; [ORIG 16-BIT INS]
    1802                            .dwpsn  file "../Source/tasks.c",line 1458,column 1,is_stmt,isa 1
    1803                    $C$DW$143       .dwtag  DW_TAG_TI_branch
    1804                            .dwattr $C$DW$143, DW_AT_low_pc(0x00)
    1805                            .dwattr $C$DW$143, DW_AT_TI_return
    1806 00000338 4770              BX        LR                    ; [DPU_3_PIPE]  ; [ORIG 16-BIT INS]
    1807                            ; BRANCH OCCURS                  ; [] 
    1808                            .dwattr $C$DW$142, DW_AT_TI_end_file("../Source/tasks.c")
    1809                            .dwattr $C$DW$142, DW_AT_TI_end_line(0x5b2)
    1810                            .dwattr $C$DW$142, DW_AT_TI_end_column(0x01)
    1811                            .dwendentry
    1812                            .dwendtag $C$DW$142
    1813                    
    1814                    ;******************************************************************************
    1815                    ;* CONSTANT TABLE                                                             *
TI ARM Assembler PC v5.1.7 Thu Oct 02 08:28:40 2014

Tools Copyright (c) 1996-2014 Texas Instruments Incorporated
tasks.asm                                                            PAGE   34

    1816                    ;******************************************************************************
    1817 0000033a                   .sect   ".text"
    1818                            .align  4
    1819 0000033a 000046C0! ||$C$CON4||:    .bits   uxTopUsedPriority,32
         0000033e 00000000 
    1820                            .align  4
    1821 0000033e 00000000! ||$C$CON5||:    .bits   uxTaskNumber,32
         00000342 00000000 
    1822                            .align  4
    1823 00000342 00000000! ||$C$CON6||:    .bits   uxTopReadyPriority,32
         00000346 00000000 
    1824                            .align  4
    1825 00000346 00000000! ||$C$CON7||:    .bits   pxReadyTasksLists,32
         0000034a 00000000 
    1826 0000034c                   .sect   ".text"
    1827                            .clink
    1828                            .thumbfunc vTaskIncrementTick
    1829 0000034c                   .thumb
    1830                            .global vTaskIncrementTick
    1831                    
    1832                    $C$DW$144       .dwtag  DW_TAG_subprogram, DW_AT_name("vTaskIncrementTick")
    1833                            .dwattr $C$DW$144, DW_AT_low_pc(vTaskIncrementTick)
    1834                            .dwattr $C$DW$144, DW_AT_high_pc(0x00)
    1835                            .dwattr $C$DW$144, DW_AT_TI_symbol_name("vTaskIncrementTick")
    1836                            .dwattr $C$DW$144, DW_AT_external
    1837                            .dwattr $C$DW$144, DW_AT_TI_begin_file("../Source/tasks.c")
    1838                            .dwattr $C$DW$144, DW_AT_TI_begin_line(0x66a)
    1839                            .dwattr $C$DW$144, DW_AT_TI_begin_column(0x06)
    1840                            .dwattr $C$DW$144, DW_AT_decl_file("../Source/tasks.c")
    1841                            .dwattr $C$DW$144, DW_AT_decl_line(0x66a)
    1842                            .dwattr $C$DW$144, DW_AT_decl_column(0x06)
    1843                            .dwattr $C$DW$144, DW_AT_TI_max_frame_size(0x10)
    1844                            .dwpsn  file "../Source/tasks.c",line 1643,column 1,is_stmt,address vTaskIncrementTick,isa 1
    1845                    
    1846                            .dwfde $C$DW$CIE, vTaskIncrementTick
    1847                    
    1848                    ;*****************************************************************************
    1849                    ;* FUNCTION NAME: vTaskIncrementTick                                         *
    1850                    ;*                                                                           *
    1851                    ;*   Regs Modified     : A1,A2,A3,A4,V9,SP,LR,SR                             *
    1852                    ;*   Regs Used         : A1,A2,A3,A4,V9,SP,LR,SR                             *
    1853                    ;*   Local Frame Size  : 0 Args + 8 Auto + 4 Save = 12 byte                  *
    1854                    ;*****************************************************************************
    1855 0000034c           vTaskIncrementTick:
    1856                    ;* --------------------------------------------------------------------------*
    1857                            .dwcfi  cfa_offset, 0
    1858 0000034c B50E              PUSH      {A2, A3, A4, LR}      ; [DPU_3_PIPE]  ; [ORIG 16-BIT INS]
    1859                            .dwcfi  cfa_offset, 16
    1860                            .dwcfi  save_reg_to_mem, 14, -4
    1861                            .dwcfi  save_reg_to_mem, 3, -8
    1862                            .dwcfi  save_reg_to_mem, 2, -12
    1863                            .dwcfi  save_reg_to_mem, 1, -16
    1864                    $C$DW$145       .dwtag  DW_TAG_variable, DW_AT_name("pxTCB")
    1865                            .dwattr $C$DW$145, DW_AT_TI_symbol_name("pxTCB")
    1866                            .dwattr $C$DW$145, DW_AT_type(*$C$DW$T$98)
TI ARM Assembler PC v5.1.7 Thu Oct 02 08:28:40 2014

Tools Copyright (c) 1996-2014 Texas Instruments Incorporated
tasks.asm                                                            PAGE   35

    1867                            .dwattr $C$DW$145, DW_AT_location[DW_OP_breg13 0]
    1868                            .dwpsn  file "../Source/tasks.c",line 1650,column 2,is_stmt,isa 1
    1869 0000034e 485B              LDR       A1, $C$CON10          ; [DPU_3_PIPE] |1650|  ; [ORIG 16-BIT INS]
    1870 00000350 6800              LDR       A1, [A1, #0]          ; [DPU_3_PIPE] |1650|  ; [ORIG 16-BIT INS]
    1871 00000352 2800              CMP       A1, #0                ; [DPU_3_PIPE] |1650|  ; [ORIG 16-BIT INS]
    1872 00000354 D170              BNE       ||$C$L36||            ; [DPU_3_PIPE] |1650|  ; [ORIG 16-BIT INS]
    1873                            ; BRANCHCC OCCURS {||$C$L36||}   ; [] |1650| 
    1874                    ;* --------------------------------------------------------------------------*
    1875                            .dwpsn  file "../Source/tasks.c",line 1652,column 3,is_stmt,isa 1
    1876 00000356 491E              LDR       A2, $C$CON8           ; [DPU_3_PIPE] |1652|  ; [ORIG 16-BIT INS]
    1877 00000358 6808              LDR       A1, [A2, #0]          ; [DPU_3_PIPE] |1652|  ; [ORIG 16-BIT INS]
    1878 0000035a 1C40              ADDS      A1, A1, #1            ; [DPU_3_PIPE] |1652|  ; [ORIG 16-BIT INS]
    1879 0000035c 6008              STR       A1, [A2, #0]          ; [DPU_3_PIPE] |1652|  ; [ORIG 16-BIT INS]
    1880                            .dwpsn  file "../Source/tasks.c",line 1653,column 3,is_stmt,isa 1
    1881 0000035e 481C              LDR       A1, $C$CON8           ; [DPU_3_PIPE] |1653|  ; [ORIG 16-BIT INS]
    1882 00000360 6800              LDR       A1, [A1, #0]          ; [DPU_3_PIPE] |1653|  ; [ORIG 16-BIT INS]
    1883 00000362 BB10              CBNZ      A1, ||$C$L29||        ; []  ; [ORIG 16-BIT INS]
    1884                            ; BRANCHCC OCCURS {||$C$L29||}   ; [] |1653| 
    1885                    ;* --------------------------------------------------------------------------*
    1886                    
    1887                    $C$DW$146       .dwtag  DW_TAG_lexical_block, DW_AT_low_pc(0x00), DW_AT_high_pc(0x00)
    1888                    $C$DW$147       .dwtag  DW_TAG_variable, DW_AT_name("pxTemp")
    1889                            .dwattr $C$DW$147, DW_AT_TI_symbol_name("pxTemp")
    1890                            .dwattr $C$DW$147, DW_AT_type(*$C$DW$T$75)
    1891                            .dwattr $C$DW$147, DW_AT_location[DW_OP_breg13 4]
    1892                            .dwpsn  file "../Source/tasks.c",line 1662,column 4,is_stmt,isa 1
    1893 00000364 48AA              LDR       A1, $C$CON16          ; [DPU_3_PIPE] |1662|  ; [ORIG 16-BIT INS]
    1894 00000366 6800              LDR       A1, [A1, #0]          ; [DPU_3_PIPE] |1662|  ; [ORIG 16-BIT INS]
    1895 00000368 9001              STR       A1, [SP, #4]          ; [DPU_3_PIPE] |1662|  ; [ORIG 16-BIT INS]
    1896                            .dwpsn  file "../Source/tasks.c",line 1663,column 4,is_stmt,isa 1
    1897 0000036a 48AA              LDR       A1, $C$CON17          ; [DPU_3_PIPE] |1663|  ; [ORIG 16-BIT INS]
    1898 0000036c 49A8              LDR       A2, $C$CON16          ; [DPU_3_PIPE] |1663|  ; [ORIG 16-BIT INS]
    1899 0000036e 6800              LDR       A1, [A1, #0]          ; [DPU_3_PIPE] |1663|  ; [ORIG 16-BIT INS]
    1900 00000370 6008              STR       A1, [A2, #0]          ; [DPU_3_PIPE] |1663|  ; [ORIG 16-BIT INS]
    1901                            .dwpsn  file "../Source/tasks.c",line 1664,column 4,is_stmt,isa 1
    1902 00000372 49A8              LDR       A2, $C$CON17          ; [DPU_3_PIPE] |1664|  ; [ORIG 16-BIT INS]
    1903 00000374 9801              LDR       A1, [SP, #4]          ; [DPU_3_PIPE] |1664|  ; [ORIG 16-BIT INS]
    1904 00000376 6008              STR       A1, [A2, #0]          ; [DPU_3_PIPE] |1664|  ; [ORIG 16-BIT INS]
    1905                            .dwpsn  file "../Source/tasks.c",line 1665,column 4,is_stmt,isa 1
    1906 00000378 49A7              LDR       A2, $C$CON18          ; [DPU_3_PIPE] |1665|  ; [ORIG 16-BIT INS]
    1907 0000037a 6808              LDR       A1, [A2, #0]          ; [DPU_3_PIPE] |1665|  ; [ORIG 16-BIT INS]
    1908 0000037c 1C40              ADDS      A1, A1, #1            ; [DPU_3_PIPE] |1665|  ; [ORIG 16-BIT INS]
    1909 0000037e 6008              STR       A1, [A2, #0]          ; [DPU_3_PIPE] |1665|  ; [ORIG 16-BIT INS]
    1910                            .dwpsn  file "../Source/tasks.c",line 1667,column 4,is_stmt,isa 1
    1911 00000380 48A3              LDR       A1, $C$CON16          ; [DPU_3_PIPE] |1667|  ; [ORIG 16-BIT INS]
    1912 00000382 6800              LDR       A1, [A1, #0]          ; [DPU_3_PIPE] |1667|  ; [ORIG 16-BIT INS]
    1913 00000384 6801              LDR       A2, [A1, #0]          ; [DPU_3_PIPE] |1667|  ; [ORIG 16-BIT INS]
    1914 00000386 2000              MOVS      A1, #0                ; [DPU_3_PIPE] |1667|  ; [ORIG 16-BIT INS]
    1915 00000388 B901              CBNZ      A2, ||$C$L26||        ; []  ; [ORIG 16-BIT INS]
    1916                            ; BRANCHCC OCCURS {||$C$L26||}   ; [] |1667| 
    1917                    ;* --------------------------------------------------------------------------*
    1918 0000038a 2001              MOVS      A1, #1                ; [DPU_3_PIPE] |1667|  ; [ORIG 16-BIT INS]
    1919                    ;* --------------------------------------------------------------------------*
    1920 0000038c           ||$C$L26||:    
    1921 0000038c B120              CBZ       A1, ||$C$L27||        ; []  ; [ORIG 16-BIT INS]
TI ARM Assembler PC v5.1.7 Thu Oct 02 08:28:40 2014

Tools Copyright (c) 1996-2014 Texas Instruments Incorporated
tasks.asm                                                            PAGE   36

    1922                            ; BRANCHCC OCCURS {||$C$L27||}   ; [] |1667| 
    1923                    ;* --------------------------------------------------------------------------*
    1924                            .dwpsn  file "../Source/tasks.c",line 1674,column 5,is_stmt,isa 1
    1925 0000038e 49A3              LDR       A2, $C$CON19          ; [DPU_3_PIPE] |1674|  ; [ORIG 16-BIT INS]
    1926 00000390 30FFF04F          MOV       A1, #-1               ; [DPU_3_PIPE] |1674|  ; [KEEP 32-BIT INS]
    1927 00000394 6008              STR       A1, [A2, #0]          ; [DPU_3_PIPE] |1674|  ; [ORIG 16-BIT INS]
    1928                            .dwpsn  file "../Source/tasks.c",line 1675,column 4,is_stmt,isa 1
    1929 00000396 E008              B         ||$C$L28||            ; [DPU_3_PIPE] |1675|  ; [ORIG 16-BIT INS]
    1930                            ; BRANCH OCCURS {||$C$L28||}     ; [] |1675| 
    1931                    ;* --------------------------------------------------------------------------*
    1932 00000398           ||$C$L27||:    
    1933                            .dwpsn  file "../Source/tasks.c",line 1682,column 5,is_stmt,isa 1
    1934 00000398 489D              LDR       A1, $C$CON16          ; [DPU_3_PIPE] |1682|  ; [ORIG 16-BIT INS]
    1935 0000039a 6800              LDR       A1, [A1, #0]          ; [DPU_3_PIPE] |1682|  ; [ORIG 16-BIT INS]
    1936 0000039c 68C0              LDR       A1, [A1, #12]         ; [DPU_3_PIPE] |1682|  ; [ORIG 16-BIT INS]
    1937 0000039e 68C0              LDR       A1, [A1, #12]         ; [DPU_3_PIPE] |1682|  ; [ORIG 16-BIT INS]
    1938 000003a0 9000              STR       A1, [SP, #0]          ; [DPU_3_PIPE] |1682|  ; [ORIG 16-BIT INS]
    1939                            .dwpsn  file "../Source/tasks.c",line 1683,column 5,is_stmt,isa 1
    1940 000003a2 9800              LDR       A1, [SP, #0]          ; [DPU_3_PIPE] |1683|  ; [ORIG 16-BIT INS]
    1941 000003a4 499D              LDR       A2, $C$CON19          ; [DPU_3_PIPE] |1683|  ; [ORIG 16-BIT INS]
    1942 000003a6 6840              LDR       A1, [A1, #4]          ; [DPU_3_PIPE] |1683|  ; [ORIG 16-BIT INS]
    1943 000003a8 6008              STR       A1, [A2, #0]          ; [DPU_3_PIPE] |1683|  ; [ORIG 16-BIT INS]
    1944                    ;* --------------------------------------------------------------------------*
    1945                    ||$C$L28||:    
    1946                            .dwendtag $C$DW$146
    1947                    
    1948                    ;* --------------------------------------------------------------------------*
    1949 000003aa           ||$C$L29||:    
    1950                    
    1951                    $C$DW$148       .dwtag  DW_TAG_lexical_block, DW_AT_low_pc(0x00), DW_AT_high_pc(0x00)
    1952                    $C$DW$149       .dwtag  DW_TAG_variable, DW_AT_name("xItemValue")
    1953                            .dwattr $C$DW$149, DW_AT_TI_symbol_name("xItemValue")
    1954                            .dwattr $C$DW$149, DW_AT_type(*$C$DW$T$36)
    1955                            .dwattr $C$DW$149, DW_AT_location[DW_OP_breg13 4]
    1956                            .dwpsn  file "../Source/tasks.c",line 1688,column 3,is_stmt,isa 1
    1957 000003aa 489C              LDR       A1, $C$CON19          ; [DPU_3_PIPE] |1688|  ; [ORIG 16-BIT INS]
    1958 000003ac 4908              LDR       A2, $C$CON8           ; [DPU_3_PIPE] |1688|  ; [ORIG 16-BIT INS]
    1959 000003ae 6800              LDR       A1, [A1, #0]          ; [DPU_3_PIPE] |1688|  ; [ORIG 16-BIT INS]
    1960 000003b0 6809              LDR       A2, [A2, #0]          ; [DPU_3_PIPE] |1688|  ; [ORIG 16-BIT INS]
    1961 000003b2 4288              CMP       A1, A2                ; [DPU_3_PIPE] |1688|  ; [ORIG 16-BIT INS]
    1962 000003b4 D844              BHI       ||$C$L37||            ; [DPU_3_PIPE] |1688|  ; [ORIG 16-BIT INS]
    1963                            ; BRANCHCC OCCURS {||$C$L37||}   ; [] |1688| 
    1964                    ;* --------------------------------------------------------------------------*
    1965                    ;*   BEGIN LOOP ||$C$L30||
    1966                    ;*
    1967                    ;*   Loop source line                : 1688
    1968                    ;*   Loop closing brace source line  : 1688
    1969                    ;*   Known Minimum Trip Count        : 1
    1970                    ;*   Known Maximum Trip Count        : 4294967295
    1971                    ;*   Known Max Trip Count Factor     : 1
    1972                    ;* --------------------------------------------------------------------------*
    1973 000003b6           ||$C$L30||:    
    1974 000003b6 4896              LDR       A1, $C$CON16          ; [DPU_3_PIPE] |1688|  ; [ORIG 16-BIT INS]
    1975 000003b8 6800              LDR       A1, [A1, #0]          ; [DPU_3_PIPE] |1688|  ; [ORIG 16-BIT INS]
    1976 000003ba 6801              LDR       A2, [A1, #0]          ; [DPU_3_PIPE] |1688|  ; [ORIG 16-BIT INS]
TI ARM Assembler PC v5.1.7 Thu Oct 02 08:28:40 2014

Tools Copyright (c) 1996-2014 Texas Instruments Incorporated
tasks.asm                                                            PAGE   37

    1977 000003bc 2000              MOVS      A1, #0                ; [DPU_3_PIPE] |1688|  ; [ORIG 16-BIT INS]
    1978 000003be B901              CBNZ      A2, ||$C$L31||        ; []  ; [ORIG 16-BIT INS]
    1979                            ; BRANCHCC OCCURS {||$C$L31||}   ; [] |1688| 
    1980                    ;* --------------------------------------------------------------------------*
    1981 000003c0 2001              MOVS      A1, #1                ; [DPU_3_PIPE] |1688|  ; [ORIG 16-BIT INS]
    1982                    ;* --------------------------------------------------------------------------*
    1983 000003c2           ||$C$L31||:    
    1984 000003c2 B138              CBZ       A1, ||$C$L32||        ; []  ; [ORIG 16-BIT INS]
    1985                            ; BRANCHCC OCCURS {||$C$L32||}   ; [] |1688| 
    1986                    ;* --------------------------------------------------------------------------*
    1987 000003c4 4995              LDR       A2, $C$CON19          ; [DPU_3_PIPE] |1688|  ; [ORIG 16-BIT INS]
    1988 000003c6 30FFF04F          MOV       A1, #-1               ; [DPU_3_PIPE] |1688|  ; [KEEP 32-BIT INS]
    1989 000003ca 6008              STR       A1, [A2, #0]          ; [DPU_3_PIPE] |1688|  ; [ORIG 16-BIT INS]
    1990 000003cc E038              B         ||$C$L37||            ; [DPU_3_PIPE] |1688|  ; [ORIG 16-BIT INS]
    1991                            ; BRANCH OCCURS {||$C$L37||}     ; [] |1688| 
    1992                    ;******************************************************************************
    1993                    ;* CONSTANT TABLE                                                             *
    1994                    ;******************************************************************************
    1995 000003ce                   .sect   ".text"
    1996                            .align  4
    1997 000003ce 000046C0! ||$C$CON8||:    .bits   xTickCount,32
         000003d2 00000000 
    1998                    ;* --------------------------------------------------------------------------*
    1999 000003d4           ||$C$L32||:    
    2000 000003d4 488E              LDR       A1, $C$CON16          ; [DPU_3_PIPE] |1688|  ; [ORIG 16-BIT INS]
    2001 000003d6 6800              LDR       A1, [A1, #0]          ; [DPU_3_PIPE] |1688|  ; [ORIG 16-BIT INS]
    2002 000003d8 68C0              LDR       A1, [A1, #12]         ; [DPU_3_PIPE] |1688|  ; [ORIG 16-BIT INS]
    2003 000003da 68C0              LDR       A1, [A1, #12]         ; [DPU_3_PIPE] |1688|  ; [ORIG 16-BIT INS]
    2004 000003dc 9000              STR       A1, [SP, #0]          ; [DPU_3_PIPE] |1688|  ; [ORIG 16-BIT INS]
    2005 000003de 9800              LDR       A1, [SP, #0]          ; [DPU_3_PIPE] |1688|  ; [ORIG 16-BIT INS]
    2006 000003e0 49A6              LDR       A2, $C$CON20          ; [DPU_3_PIPE] |1688|  ; [ORIG 16-BIT INS]
    2007 000003e2 6840              LDR       A1, [A1, #4]          ; [DPU_3_PIPE] |1688|  ; [ORIG 16-BIT INS]
    2008 000003e4 6809              LDR       A2, [A2, #0]          ; [DPU_3_PIPE] |1688|  ; [ORIG 16-BIT INS]
    2009 000003e6 9001              STR       A1, [SP, #4]          ; [DPU_3_PIPE] |1688|  ; [ORIG 16-BIT INS]
    2010 000003e8 9801              LDR       A1, [SP, #4]          ; [DPU_3_PIPE] |1688|  ; [ORIG 16-BIT INS]
    2011 000003ea 4288              CMP       A1, A2                ; [DPU_3_PIPE] |1688|  ; [ORIG 16-BIT INS]
    2012 000003ec D903              BLS       ||$C$L33||            ; [DPU_3_PIPE] |1688|  ; [ORIG 16-BIT INS]
    2013                            ; BRANCHCC OCCURS {||$C$L33||}   ; [] |1688| 
    2014                    ;* --------------------------------------------------------------------------*
    2015 000003ee 9801              LDR       A1, [SP, #4]          ; [DPU_3_PIPE] |1688|  ; [ORIG 16-BIT INS]
    2016 000003f0 498A              LDR       A2, $C$CON19          ; [DPU_3_PIPE] |1688|  ; [ORIG 16-BIT INS]
    2017 000003f2 6008              STR       A1, [A2, #0]          ; [DPU_3_PIPE] |1688|  ; [ORIG 16-BIT INS]
    2018 000003f4 E024              B         ||$C$L37||            ; [DPU_3_PIPE] |1688|  ; [ORIG 16-BIT INS]
    2019                            ; BRANCH OCCURS {||$C$L37||}     ; [] |1688| 
    2020                    ;* --------------------------------------------------------------------------*
    2021 000003f6           ||$C$L33||:    
    2022 000003f6 9800              LDR       A1, [SP, #0]          ; [DPU_3_PIPE] |1688|  ; [ORIG 16-BIT INS]
    2023 000003f8 1D00              ADDS      A1, A1, #4            ; [DPU_3_PIPE] |1688|  ; [ORIG 16-BIT INS]
    2024                    $C$DW$150       .dwtag  DW_TAG_TI_branch
    2025                            .dwattr $C$DW$150, DW_AT_low_pc(0x00)
    2026                            .dwattr $C$DW$150, DW_AT_name("uxListRemove")
    2027                            .dwattr $C$DW$150, DW_AT_TI_call
    2028 000003fa FFFEF7FF!         BL        uxListRemove          ; [DPU_3_PIPE] |1688|  ; [KEEP 32-BIT INS]
    2029                            ; CALL OCCURS {uxListRemove }    ; [] |1688| 
    2030 000003fe 9800              LDR       A1, [SP, #0]          ; [DPU_3_PIPE] |1688|  ; [ORIG 16-BIT INS]
TI ARM Assembler PC v5.1.7 Thu Oct 02 08:28:40 2014

Tools Copyright (c) 1996-2014 Texas Instruments Incorporated
tasks.asm                                                            PAGE   38

    2031 00000400 6A80              LDR       A1, [A1, #40]         ; [DPU_3_PIPE] |1688|  ; [ORIG 16-BIT INS]
    2032 00000402 B118              CBZ       A1, ||$C$L34||        ; []  ; [ORIG 16-BIT INS]
    2033                            ; BRANCHCC OCCURS {||$C$L34||}   ; [] |1688| 
    2034                    ;* --------------------------------------------------------------------------*
    2035 00000404 9800              LDR       A1, [SP, #0]          ; [DPU_3_PIPE] |1688|  ; [ORIG 16-BIT INS]
    2036 00000406 3018              ADDS      A1, A1, #24           ; [DPU_3_PIPE] |1688|  ; [ORIG 16-BIT INS]
    2037                    $C$DW$151       .dwtag  DW_TAG_TI_branch
    2038                            .dwattr $C$DW$151, DW_AT_low_pc(0x00)
    2039                            .dwattr $C$DW$151, DW_AT_name("uxListRemove")
    2040                            .dwattr $C$DW$151, DW_AT_TI_call
    2041 00000408 FFFEF7FF!         BL        uxListRemove          ; [DPU_3_PIPE] |1688|  ; [KEEP 32-BIT INS]
    2042                            ; CALL OCCURS {uxListRemove }    ; [] |1688| 
    2043                    ;* --------------------------------------------------------------------------*
    2044 0000040c           ||$C$L34||:    
    2045 0000040c 48AF              LDR       A1, $C$CON21          ; [DPU_3_PIPE] |1688|  ; [ORIG 16-BIT INS]
    2046 0000040e 9900              LDR       A2, [SP, #0]          ; [DPU_3_PIPE] |1688|  ; [ORIG 16-BIT INS]
    2047 00000410 6800              LDR       A1, [A1, #0]          ; [DPU_3_PIPE] |1688|  ; [ORIG 16-BIT INS]
    2048 00000412 6AC9              LDR       A2, [A2, #44]         ; [DPU_3_PIPE] |1688|  ; [ORIG 16-BIT INS]
    2049 00000414 4288              CMP       A1, A2                ; [DPU_3_PIPE] |1688|  ; [ORIG 16-BIT INS]
    2050 00000416 D203              BCS       ||$C$L35||            ; [DPU_3_PIPE] |1688|  ; [ORIG 16-BIT INS]
    2051                            ; BRANCHCC OCCURS {||$C$L35||}   ; [] |1688| 
    2052                    ;* --------------------------------------------------------------------------*
    2053 00000418 9800              LDR       A1, [SP, #0]          ; [DPU_3_PIPE] |1688|  ; [ORIG 16-BIT INS]
    2054 0000041a 49AC              LDR       A2, $C$CON21          ; [DPU_3_PIPE] |1688|  ; [ORIG 16-BIT INS]
    2055 0000041c 6AC0              LDR       A1, [A1, #44]         ; [DPU_3_PIPE] |1688|  ; [ORIG 16-BIT INS]
    2056 0000041e 6008              STR       A1, [A2, #0]          ; [DPU_3_PIPE] |1688|  ; [ORIG 16-BIT INS]
    2057                    ;* --------------------------------------------------------------------------*
    2058 00000420           ||$C$L35||:    
    2059 00000420 9800              LDR       A1, [SP, #0]          ; [DPU_3_PIPE] |1688|  ; [ORIG 16-BIT INS]
    2060 00000422 6AC3              LDR       A4, [A1, #44]         ; [DPU_3_PIPE] |1688|  ; [ORIG 16-BIT INS]
    2061 00000424 9900              LDR       A2, [SP, #0]          ; [DPU_3_PIPE] |1688|  ; [ORIG 16-BIT INS]
    2062 00000426 48AA              LDR       A1, $C$CON22          ; [DPU_3_PIPE] |1688|  ; [ORIG 16-BIT INS]
    2063 00000428 009A              LSLS      A3, A4, #2            ; [DPU_3_PIPE] |1688|  ; [ORIG 16-BIT INS]
    2064 0000042a 1D09              ADDS      A2, A2, #4            ; [DPU_3_PIPE] |1688|  ; [ORIG 16-BIT INS]
    2065 0000042c 1203EB02          ADD       A3, A3, A4, LSL #4    ; [DPU_3_PIPE] |1688|  ; [KEEP 32-BIT INS]
    2066 00000430 1880              ADDS      A1, A1, A3            ; [DPU_3_PIPE] |1688|  ; [ORIG 16-BIT INS]
    2067                    $C$DW$152       .dwtag  DW_TAG_TI_branch
    2068                            .dwattr $C$DW$152, DW_AT_low_pc(0x00)
    2069                            .dwattr $C$DW$152, DW_AT_name("vListInsertEnd")
    2070                            .dwattr $C$DW$152, DW_AT_TI_call
    2071 00000432 FFFEF7FF!         BL        vListInsertEnd        ; [DPU_3_PIPE] |1688|  ; [KEEP 32-BIT INS]
    2072                            ; CALL OCCURS {vListInsertEnd }  ; [] |1688| 
    2073 00000436 E7BE              B         ||$C$L30||            ; [DPU_3_PIPE] |1688|  ; [ORIG 16-BIT INS]
    2074                            ; BRANCH OCCURS {||$C$L30||}     ; [] |1688| 
    2075                    ;* --------------------------------------------------------------------------*
    2076                            .dwendtag $C$DW$148
    2077                    
    2078                    ;* --------------------------------------------------------------------------*
    2079 00000438           ||$C$L36||:    
    2080                            .dwpsn  file "../Source/tasks.c",line 1692,column 3,is_stmt,isa 1
    2081 00000438 492F              LDR       A2, $C$CON13          ; [DPU_3_PIPE] |1692|  ; [ORIG 16-BIT INS]
    2082 0000043a 6808              LDR       A1, [A2, #0]          ; [DPU_3_PIPE] |1692|  ; [ORIG 16-BIT INS]
    2083 0000043c 1C40              ADDS      A1, A1, #1            ; [DPU_3_PIPE] |1692|  ; [ORIG 16-BIT INS]
    2084 0000043e 6008              STR       A1, [A2, #0]          ; [DPU_3_PIPE] |1692|  ; [ORIG 16-BIT INS]
    2085                            .dwpsn  file "../Source/tasks.c",line 1713,column 1,is_stmt,isa 1
TI ARM Assembler PC v5.1.7 Thu Oct 02 08:28:40 2014

Tools Copyright (c) 1996-2014 Texas Instruments Incorporated
tasks.asm                                                            PAGE   39

    2086                    ;* --------------------------------------------------------------------------*
    2087                    ||$C$L37||:    
    2088                    $C$DW$153       .dwtag  DW_TAG_TI_branch
    2089                            .dwattr $C$DW$153, DW_AT_low_pc(0x00)
    2090                            .dwattr $C$DW$153, DW_AT_TI_return
    2091 00000440 BD0E              POP       {A2, A3, A4, PC}      ; [DPU_3_PIPE]  ; [ORIG 16-BIT INS]
    2092                            .dwcfi  cfa_offset, 0
    2093                            ; BRANCH OCCURS                  ; [] 
    2094                            .dwattr $C$DW$144, DW_AT_TI_end_file("../Source/tasks.c")
    2095                            .dwattr $C$DW$144, DW_AT_TI_end_line(0x6b1)
    2096                            .dwattr $C$DW$144, DW_AT_TI_end_column(0x01)
    2097                            .dwendentry
    2098                            .dwendtag $C$DW$144
    2099                    
    2100                    ;******************************************************************************
    2101                    ;* STRINGS                                                                    *
    2102                    ;******************************************************************************
    2103 00000442                   .sect   ".text"
    2104                            .align  4
    2105 00000444 49        ||$C$SL1||:     .string "IDLE",0
         00000445 44       
         00000446 4C       
         00000447 45       
         00000448 00       
    2106                    ;******************************************************************************
    2107                    ;* CONSTANT TABLE                                                             *
    2108                    ;******************************************************************************
    2109 00000449                   .sect   ".text"
    2110                            .align  4
    2111 0000044a 0000C046! ||$C$CON9||:    .bits   prvIdleTask,32
         0000044e 00000000 
    2112 00000450                   .sect   ".text"
    2113                            .clink
    2114                            .thumbfunc vTaskSwitchContext
    2115 00000450                   .thumb
    2116                            .global vTaskSwitchContext
    2117                    
    2118                    $C$DW$154       .dwtag  DW_TAG_subprogram, DW_AT_name("vTaskSwitchContext")
    2119                            .dwattr $C$DW$154, DW_AT_low_pc(vTaskSwitchContext)
    2120                            .dwattr $C$DW$154, DW_AT_high_pc(0x00)
    2121                            .dwattr $C$DW$154, DW_AT_TI_symbol_name("vTaskSwitchContext")
    2122                            .dwattr $C$DW$154, DW_AT_external
    2123                            .dwattr $C$DW$154, DW_AT_TI_begin_file("../Source/tasks.c")
    2124                            .dwattr $C$DW$154, DW_AT_TI_begin_line(0x70b)
    2125                            .dwattr $C$DW$154, DW_AT_TI_begin_column(0x06)
    2126                            .dwattr $C$DW$154, DW_AT_decl_file("../Source/tasks.c")
    2127                            .dwattr $C$DW$154, DW_AT_decl_line(0x70b)
    2128                            .dwattr $C$DW$154, DW_AT_decl_column(0x06)
    2129                            .dwattr $C$DW$154, DW_AT_TI_max_frame_size(0x08)
    2130                            .dwpsn  file "../Source/tasks.c",line 1804,column 1,is_stmt,address vTaskSwitchContext,isa 1
    2131                    
    2132                            .dwfde $C$DW$CIE, vTaskSwitchContext
    2133                    
    2134                    ;*****************************************************************************
    2135                    ;* FUNCTION NAME: vTaskSwitchContext                                         *
TI ARM Assembler PC v5.1.7 Thu Oct 02 08:28:40 2014

Tools Copyright (c) 1996-2014 Texas Instruments Incorporated
tasks.asm                                                            PAGE   40

    2136                    ;*                                                                           *
    2137                    ;*   Regs Modified     : A1,A2,A3,SP,SR                                      *
    2138                    ;*   Regs Used         : A1,A2,A3,SP,LR,SR                                   *
    2139                    ;*   Local Frame Size  : 0 Args + 4 Auto + 0 Save = 4 byte                   *
    2140                    ;*****************************************************************************
    2141 00000450           vTaskSwitchContext:
    2142                    ;* --------------------------------------------------------------------------*
    2143                            .dwcfi  cfa_offset, 0
    2144 00000450 0D08F1AD          SUB       SP, SP, #8            ; [DPU_3_PIPE]  ; [KEEP 32-BIT INS]
    2145                            .dwcfi  cfa_offset, 8
    2146                            .dwpsn  file "../Source/tasks.c",line 1805,column 2,is_stmt,isa 1
    2147 00000454 4819              LDR       A1, $C$CON10          ; [DPU_3_PIPE] |1805|  ; [ORIG 16-BIT INS]
    2148 00000456 6800              LDR       A1, [A1, #0]          ; [DPU_3_PIPE] |1805|  ; [ORIG 16-BIT INS]
    2149 00000458 B138              CBZ       A1, ||$C$L39||        ; []  ; [ORIG 16-BIT INS]
    2150                            ; BRANCHCC OCCURS {||$C$L39||}   ; [] |1805| 
    2151                    ;* --------------------------------------------------------------------------*
    2152                            .dwpsn  file "../Source/tasks.c",line 1809,column 3,is_stmt,isa 1
    2153 0000045a 494C              LDR       A2, $C$CON14          ; [DPU_3_PIPE] |1809|  ; [ORIG 16-BIT INS]
    2154 0000045c 2001              MOVS      A1, #1                ; [DPU_3_PIPE] |1809|  ; [ORIG 16-BIT INS]
    2155 0000045e 6008              STR       A1, [A2, #0]          ; [DPU_3_PIPE] |1809|  ; [ORIG 16-BIT INS]
    2156                            .dwpsn  file "../Source/tasks.c",line 1810,column 2,is_stmt,isa 1
    2157 00000460 E029              B         ||$C$L41||            ; [DPU_3_PIPE] |1810|  ; [ORIG 16-BIT INS]
    2158                            ; BRANCH OCCURS {||$C$L41||}     ; [] |1810| 
    2159                    ;* --------------------------------------------------------------------------*
    2160                    ;* --------------------------------------------------------------------------*
    2161 00000462           ||$C$L38||:    
    2162 00000462 499A              LDR       A2, $C$CON21          ; [DPU_3_PIPE] |1836|  ; [ORIG 16-BIT INS]
    2163 00000464 6808              LDR       A1, [A2, #0]          ; [DPU_3_PIPE] |1836|  ; [ORIG 16-BIT INS]
    2164 00000466 1E40              SUBS      A1, A1, #1            ; [DPU_3_PIPE] |1836|  ; [ORIG 16-BIT INS]
    2165 00000468 6008              STR       A1, [A2, #0]          ; [DPU_3_PIPE] |1836|  ; [ORIG 16-BIT INS]
    2166                    ;* --------------------------------------------------------------------------*
    2167                    ;*   BEGIN LOOP ||$C$L39||
    2168                    ;* --------------------------------------------------------------------------*
    2169 0000046a           ||$C$L39||:    
    2170 0000046a 4898              LDR       A1, $C$CON21          ; [DPU_3_PIPE] |1836|  ; [ORIG 16-BIT INS]
    2171 0000046c 4998              LDR       A2, $C$CON22          ; [DPU_3_PIPE] |1836|  ; [ORIG 16-BIT INS]
    2172 0000046e 6802              LDR       A3, [A1, #0]          ; [DPU_3_PIPE] |1836|  ; [ORIG 16-BIT INS]
    2173 00000470 0090              LSLS      A1, A3, #2            ; [DPU_3_PIPE] |1836|  ; [ORIG 16-BIT INS]
    2174 00000472 1002EB00          ADD       A1, A1, A3, LSL #4    ; [DPU_3_PIPE] |1836|  ; [KEEP 32-BIT INS]
    2175 00000476 5808              LDR       A1, [A2, +A1]         ; [DPU_3_PIPE] |1836|  ; [ORIG 16-BIT INS]
    2176 00000478 2800              CMP       A1, #0                ; [DPU_3_PIPE] |1836|  ; [ORIG 16-BIT INS]
    2177 0000047a D0F2              BEQ       ||$C$L38||            ; [DPU_3_PIPE] |1836|  ; [ORIG 16-BIT INS]
    2178                            ; BRANCHCC OCCURS {||$C$L38||}   ; [] |1836| 
    2179                    ;* --------------------------------------------------------------------------*
    2180                    
    2181                    $C$DW$155       .dwtag  DW_TAG_lexical_block, DW_AT_low_pc(0x00), DW_AT_high_pc(0x00)
    2182                    $C$DW$156       .dwtag  DW_TAG_variable, DW_AT_name("pxConstList")
    2183                            .dwattr $C$DW$156, DW_AT_TI_symbol_name("pxConstList")
    2184                            .dwattr $C$DW$156, DW_AT_type(*$C$DW$T$145)
    2185                            .dwattr $C$DW$156, DW_AT_location[DW_OP_breg13 0]
    2186 0000047c 4893              LDR       A1, $C$CON21          ; [DPU_3_PIPE] |1836|  ; [ORIG 16-BIT INS]
    2187 0000047e 4994              LDR       A2, $C$CON22          ; [DPU_3_PIPE] |1836|  ; [ORIG 16-BIT INS]
    2188 00000480 6802              LDR       A3, [A1, #0]          ; [DPU_3_PIPE] |1836|  ; [ORIG 16-BIT INS]
    2189 00000482 0090              LSLS      A1, A3, #2            ; [DPU_3_PIPE] |1836|  ; [ORIG 16-BIT INS]
    2190 00000484 1002EB00          ADD       A1, A1, A3, LSL #4    ; [DPU_3_PIPE] |1836|  ; [KEEP 32-BIT INS]
TI ARM Assembler PC v5.1.7 Thu Oct 02 08:28:40 2014

Tools Copyright (c) 1996-2014 Texas Instruments Incorporated
tasks.asm                                                            PAGE   41

    2191 00000488 1809              ADDS      A2, A2, A1            ; [DPU_3_PIPE] |1836|  ; [ORIG 16-BIT INS]
    2192 0000048a 9100              STR       A2, [SP, #0]          ; [DPU_3_PIPE] |1836|  ; [ORIG 16-BIT INS]
    2193 0000048c 9800              LDR       A1, [SP, #0]          ; [DPU_3_PIPE] |1836|  ; [ORIG 16-BIT INS]
    2194 0000048e 6840              LDR       A1, [A1, #4]          ; [DPU_3_PIPE] |1836|  ; [ORIG 16-BIT INS]
    2195 00000490 9900              LDR       A2, [SP, #0]          ; [DPU_3_PIPE] |1836|  ; [ORIG 16-BIT INS]
    2196 00000492 6840              LDR       A1, [A1, #4]          ; [DPU_3_PIPE] |1836|  ; [ORIG 16-BIT INS]
    2197 00000494 6048              STR       A1, [A2, #4]          ; [DPU_3_PIPE] |1836|  ; [ORIG 16-BIT INS]
    2198 00000496 9900              LDR       A2, [SP, #0]          ; [DPU_3_PIPE] |1836|  ; [ORIG 16-BIT INS]
    2199 00000498 9800              LDR       A1, [SP, #0]          ; [DPU_3_PIPE] |1836|  ; [ORIG 16-BIT INS]
    2200 0000049a 6849              LDR       A2, [A2, #4]          ; [DPU_3_PIPE] |1836|  ; [ORIG 16-BIT INS]
    2201 0000049c 3008              ADDS      A1, A1, #8            ; [DPU_3_PIPE] |1836|  ; [ORIG 16-BIT INS]
    2202 0000049e 4288              CMP       A1, A2                ; [DPU_3_PIPE] |1836|  ; [ORIG 16-BIT INS]
    2203 000004a0 D104              BNE       ||$C$L40||            ; [DPU_3_PIPE] |1836|  ; [ORIG 16-BIT INS]
    2204                            ; BRANCHCC OCCURS {||$C$L40||}   ; [] |1836| 
    2205                    ;* --------------------------------------------------------------------------*
    2206 000004a2 9800              LDR       A1, [SP, #0]          ; [DPU_3_PIPE] |1836|  ; [ORIG 16-BIT INS]
    2207 000004a4 6840              LDR       A1, [A1, #4]          ; [DPU_3_PIPE] |1836|  ; [ORIG 16-BIT INS]
    2208 000004a6 9900              LDR       A2, [SP, #0]          ; [DPU_3_PIPE] |1836|  ; [ORIG 16-BIT INS]
    2209 000004a8 6840              LDR       A1, [A1, #4]          ; [DPU_3_PIPE] |1836|  ; [ORIG 16-BIT INS]
    2210 000004aa 6048              STR       A1, [A2, #4]          ; [DPU_3_PIPE] |1836|  ; [ORIG 16-BIT INS]
    2211                    ;* --------------------------------------------------------------------------*
    2212 000004ac           ||$C$L40||:    
    2213 000004ac 9800              LDR       A1, [SP, #0]          ; [DPU_3_PIPE] |1836|  ; [ORIG 16-BIT INS]
    2214 000004ae 6840              LDR       A1, [A1, #4]          ; [DPU_3_PIPE] |1836|  ; [ORIG 16-BIT INS]
    2215 000004b0 499A              LDR       A2, $C$CON23          ; [DPU_3_PIPE] |1836|  ; [ORIG 16-BIT INS]
    2216 000004b2 68C0              LDR       A1, [A1, #12]         ; [DPU_3_PIPE] |1836|  ; [ORIG 16-BIT INS]
    2217 000004b4 6008              STR       A1, [A2, #0]          ; [DPU_3_PIPE] |1836|  ; [ORIG 16-BIT INS]
    2218                            .dwendtag $C$DW$155
    2219                    
    2220                            .dwpsn  file "../Source/tasks.c",line 1840,column 1,is_stmt,isa 1
    2221                    ;* --------------------------------------------------------------------------*
    2222 000004b6           ||$C$L41||:    
    2223 000004b6 B002              ADD       SP, SP, #8            ; [DPU_3_PIPE]  ; [ORIG 16-BIT INS]
    2224                            .dwcfi  cfa_offset, 0
    2225                    $C$DW$157       .dwtag  DW_TAG_TI_branch
    2226                            .dwattr $C$DW$157, DW_AT_low_pc(0x00)
    2227                            .dwattr $C$DW$157, DW_AT_TI_return
    2228 000004b8 4770              BX        LR                    ; [DPU_3_PIPE]  ; [ORIG 16-BIT INS]
    2229                            ; BRANCH OCCURS                  ; [] 
    2230                            .dwattr $C$DW$154, DW_AT_TI_end_file("../Source/tasks.c")
    2231                            .dwattr $C$DW$154, DW_AT_TI_end_line(0x730)
    2232                            .dwattr $C$DW$154, DW_AT_TI_end_column(0x01)
    2233                            .dwendentry
    2234                            .dwendtag $C$DW$154
    2235                    
    2236                    ;******************************************************************************
    2237                    ;* CONSTANT TABLE                                                             *
    2238                    ;******************************************************************************
    2239 000004ba                   .sect   ".text"
    2240                            .align  4
    2241 000004ba 000046C0! ||$C$CON10||:   .bits   uxSchedulerSuspended,32
         000004be 00000000 
    2242 000004c0                   .sect   ".text"
    2243                            .clink
    2244                            .thumbfunc vTaskPlaceOnEventList
TI ARM Assembler PC v5.1.7 Thu Oct 02 08:28:40 2014

Tools Copyright (c) 1996-2014 Texas Instruments Incorporated
tasks.asm                                                            PAGE   42

    2245 000004c0                   .thumb
    2246                            .global vTaskPlaceOnEventList
    2247                    
    2248                    $C$DW$158       .dwtag  DW_TAG_subprogram, DW_AT_name("vTaskPlaceOnEventList")
    2249                            .dwattr $C$DW$158, DW_AT_low_pc(vTaskPlaceOnEventList)
    2250                            .dwattr $C$DW$158, DW_AT_high_pc(0x00)
    2251                            .dwattr $C$DW$158, DW_AT_TI_symbol_name("vTaskPlaceOnEventList")
    2252                            .dwattr $C$DW$158, DW_AT_external
    2253                            .dwattr $C$DW$158, DW_AT_TI_begin_file("../Source/tasks.c")
    2254                            .dwattr $C$DW$158, DW_AT_TI_begin_line(0x733)
    2255                            .dwattr $C$DW$158, DW_AT_TI_begin_column(0x06)
    2256                            .dwattr $C$DW$158, DW_AT_decl_file("../Source/tasks.c")
    2257                            .dwattr $C$DW$158, DW_AT_decl_line(0x733)
    2258                            .dwattr $C$DW$158, DW_AT_decl_column(0x06)
    2259                            .dwattr $C$DW$158, DW_AT_TI_max_frame_size(0x10)
    2260                            .dwpsn  file "../Source/tasks.c",line 1844,column 1,is_stmt,address vTaskPlaceOnEventList,isa 
    2261                    
    2262                            .dwfde $C$DW$CIE, vTaskPlaceOnEventList
    2263                    $C$DW$159       .dwtag  DW_TAG_formal_parameter, DW_AT_name("pxEventList")
    2264                            .dwattr $C$DW$159, DW_AT_TI_symbol_name("pxEventList")
    2265                            .dwattr $C$DW$159, DW_AT_type(*$C$DW$T$90)
    2266                            .dwattr $C$DW$159, DW_AT_location[DW_OP_reg0]
    2267                    $C$DW$160       .dwtag  DW_TAG_formal_parameter, DW_AT_name("xTicksToWait")
    2268                            .dwattr $C$DW$160, DW_AT_TI_symbol_name("xTicksToWait")
    2269                            .dwattr $C$DW$160, DW_AT_type(*$C$DW$T$36)
    2270                            .dwattr $C$DW$160, DW_AT_location[DW_OP_reg1]
    2271                    
    2272                    ;*****************************************************************************
    2273                    ;* FUNCTION NAME: vTaskPlaceOnEventList                                      *
    2274                    ;*                                                                           *
    2275                    ;*   Regs Modified     : A1,A2,A3,A4,V9,SP,LR,SR                             *
    2276                    ;*   Regs Used         : A1,A2,A3,A4,V9,SP,LR,SR                             *
    2277                    ;*   Local Frame Size  : 0 Args + 12 Auto + 4 Save = 16 byte                 *
    2278                    ;*****************************************************************************
    2279 000004c0           vTaskPlaceOnEventList:
    2280                    ;* --------------------------------------------------------------------------*
    2281                            .dwcfi  cfa_offset, 0
    2282 000004c0 B50E              PUSH      {A2, A3, A4, LR}      ; [DPU_3_PIPE]  ; [ORIG 16-BIT INS]
    2283                            .dwcfi  cfa_offset, 16
    2284                            .dwcfi  save_reg_to_mem, 14, -4
    2285                            .dwcfi  save_reg_to_mem, 3, -8
    2286                            .dwcfi  save_reg_to_mem, 2, -12
    2287                            .dwcfi  save_reg_to_mem, 1, -16
    2288                    $C$DW$161       .dwtag  DW_TAG_variable, DW_AT_name("pxEventList")
    2289                            .dwattr $C$DW$161, DW_AT_TI_symbol_name("pxEventList")
    2290                            .dwattr $C$DW$161, DW_AT_type(*$C$DW$T$90)
    2291                            .dwattr $C$DW$161, DW_AT_location[DW_OP_breg13 0]
    2292                    $C$DW$162       .dwtag  DW_TAG_variable, DW_AT_name("xTicksToWait")
    2293                            .dwattr $C$DW$162, DW_AT_TI_symbol_name("xTicksToWait")
    2294                            .dwattr $C$DW$162, DW_AT_type(*$C$DW$T$36)
    2295                            .dwattr $C$DW$162, DW_AT_location[DW_OP_breg13 4]
    2296                    $C$DW$163       .dwtag  DW_TAG_variable, DW_AT_name("xTimeToWake")
    2297                            .dwattr $C$DW$163, DW_AT_TI_symbol_name("xTimeToWake")
    2298                            .dwattr $C$DW$163, DW_AT_type(*$C$DW$T$36)
    2299                            .dwattr $C$DW$163, DW_AT_location[DW_OP_breg13 8]
TI ARM Assembler PC v5.1.7 Thu Oct 02 08:28:40 2014

Tools Copyright (c) 1996-2014 Texas Instruments Incorporated
tasks.asm                                                            PAGE   43

    2300 000004c2 9101              STR       A2, [SP, #4]          ; [DPU_3_PIPE] |1844|  ; [ORIG 16-BIT INS]
    2301 000004c4 9000              STR       A1, [SP, #0]          ; [DPU_3_PIPE] |1844|  ; [ORIG 16-BIT INS]
    2302                            .dwpsn  file "../Source/tasks.c",line 1855,column 2,is_stmt,isa 1
    2303 000004c6 4895              LDR       A1, $C$CON23          ; [DPU_3_PIPE] |1855|  ; [ORIG 16-BIT INS]
    2304 000004c8 6801              LDR       A2, [A1, #0]          ; [DPU_3_PIPE] |1855|  ; [ORIG 16-BIT INS]
    2305 000004ca 9800              LDR       A1, [SP, #0]          ; [DPU_3_PIPE] |1855|  ; [ORIG 16-BIT INS]
    2306 000004cc 3118              ADDS      A2, A2, #24           ; [DPU_3_PIPE] |1855|  ; [ORIG 16-BIT INS]
    2307                    $C$DW$164       .dwtag  DW_TAG_TI_branch
    2308                            .dwattr $C$DW$164, DW_AT_low_pc(0x00)
    2309                            .dwattr $C$DW$164, DW_AT_name("vListInsert")
    2310                            .dwattr $C$DW$164, DW_AT_TI_call
    2311 000004ce FFFEF7FF!         BL        vListInsert           ; [DPU_3_PIPE] |1855|  ; [KEEP 32-BIT INS]
    2312                            ; CALL OCCURS {vListInsert }     ; [] |1855| 
    2313                            .dwpsn  file "../Source/tasks.c",line 1860,column 2,is_stmt,isa 1
    2314 000004d2 4892              LDR       A1, $C$CON23          ; [DPU_3_PIPE] |1860|  ; [ORIG 16-BIT INS]
    2315 000004d4 6800              LDR       A1, [A1, #0]          ; [DPU_3_PIPE] |1860|  ; [ORIG 16-BIT INS]
    2316 000004d6 1D00              ADDS      A1, A1, #4            ; [DPU_3_PIPE] |1860|  ; [ORIG 16-BIT INS]
    2317                    $C$DW$165       .dwtag  DW_TAG_TI_branch
    2318                            .dwattr $C$DW$165, DW_AT_low_pc(0x00)
    2319                            .dwattr $C$DW$165, DW_AT_name("uxListRemove")
    2320                            .dwattr $C$DW$165, DW_AT_TI_call
    2321 000004d8 FFFEF7FF!         BL        uxListRemove          ; [DPU_3_PIPE] |1860|  ; [KEEP 32-BIT INS]
    2322                            ; CALL OCCURS {uxListRemove }    ; [] |1860| 
    2323                            .dwpsn  file "../Source/tasks.c",line 1888,column 4,is_stmt,isa 1
    2324 000004dc 4967              LDR       A2, $C$CON20          ; [DPU_3_PIPE] |1888|  ; [ORIG 16-BIT INS]
    2325 000004de 9801              LDR       A1, [SP, #4]          ; [DPU_3_PIPE] |1888|  ; [ORIG 16-BIT INS]
    2326 000004e0 6809              LDR       A2, [A2, #0]          ; [DPU_3_PIPE] |1888|  ; [ORIG 16-BIT INS]
    2327 000004e2 1840              ADDS      A1, A1, A2            ; [DPU_3_PIPE] |1888|  ; [ORIG 16-BIT INS]
    2328 000004e4 9002              STR       A1, [SP, #8]          ; [DPU_3_PIPE] |1888|  ; [ORIG 16-BIT INS]
    2329                            .dwpsn  file "../Source/tasks.c",line 1889,column 4,is_stmt,isa 1
    2330 000004e6 9802              LDR       A1, [SP, #8]          ; [DPU_3_PIPE] |1889|  ; [ORIG 16-BIT INS]
    2331                    $C$DW$166       .dwtag  DW_TAG_TI_branch
    2332                            .dwattr $C$DW$166, DW_AT_low_pc(0x00)
    2333                            .dwattr $C$DW$166, DW_AT_name("prvAddCurrentTaskToDelayedList")
    2334                            .dwattr $C$DW$166, DW_AT_TI_call
    2335 000004e8 F8F4F000          BL        prvAddCurrentTaskToDelayedList ; [DPU_3_PIPE] |1889|  ; [KEEP 32-BIT INS]
    2336                            ; CALL OCCURS {prvAddCurrentTaskToDelayedList }  ; [] |1889| 
    2337                            .dwpsn  file "../Source/tasks.c",line 1892,column 1,is_stmt,isa 1
    2338                    $C$DW$167       .dwtag  DW_TAG_TI_branch
    2339                            .dwattr $C$DW$167, DW_AT_low_pc(0x00)
    2340                            .dwattr $C$DW$167, DW_AT_TI_return
    2341 000004ec BD0E              POP       {A2, A3, A4, PC}      ; [DPU_3_PIPE]  ; [ORIG 16-BIT INS]
    2342                            .dwcfi  cfa_offset, 0
    2343                            ; BRANCH OCCURS                  ; [] 
    2344                            .dwattr $C$DW$158, DW_AT_TI_end_file("../Source/tasks.c")
    2345                            .dwattr $C$DW$158, DW_AT_TI_end_line(0x764)
    2346                            .dwattr $C$DW$158, DW_AT_TI_end_column(0x01)
    2347                            .dwendentry
    2348                            .dwendtag $C$DW$158
    2349                    
    2350                    ;******************************************************************************
    2351                    ;* CONSTANT TABLE                                                             *
    2352                    ;******************************************************************************
    2353 000004ee                   .sect   ".text"
    2354                            .align  4
TI ARM Assembler PC v5.1.7 Thu Oct 02 08:28:40 2014

Tools Copyright (c) 1996-2014 Texas Instruments Incorporated
tasks.asm                                                            PAGE   44

    2355 000004ee 000C46C0! ||$C$CON11||:   .bits   xPendingReadyList+12,32
         000004f2 00000000 
    2356                            .align  4
    2357 000004f2 00000000! ||$C$CON12||:   .bits   xPendingReadyList,32
         000004f6 00000000 
    2358                            .align  4
    2359 000004f6 00000000! ||$C$CON13||:   .bits   uxMissedTicks,32
         000004fa 00000000 
    2360 000004fc                   .sect   ".text"
    2361                            .clink
    2362                            .thumbfunc xTaskRemoveFromEventList
    2363 000004fc                   .thumb
    2364                            .global xTaskRemoveFromEventList
    2365                    
    2366                    $C$DW$168       .dwtag  DW_TAG_subprogram, DW_AT_name("xTaskRemoveFromEventList")
    2367                            .dwattr $C$DW$168, DW_AT_low_pc(xTaskRemoveFromEventList)
    2368                            .dwattr $C$DW$168, DW_AT_high_pc(0x00)
    2369                            .dwattr $C$DW$168, DW_AT_TI_symbol_name("xTaskRemoveFromEventList")
    2370                            .dwattr $C$DW$168, DW_AT_external
    2371                            .dwattr $C$DW$168, DW_AT_type(*$C$DW$T$12)
    2372                            .dwattr $C$DW$168, DW_AT_TI_begin_file("../Source/tasks.c")
    2373                            .dwattr $C$DW$168, DW_AT_TI_begin_line(0x790)
    2374                            .dwattr $C$DW$168, DW_AT_TI_begin_column(0x16)
    2375                            .dwattr $C$DW$168, DW_AT_decl_file("../Source/tasks.c")
    2376                            .dwattr $C$DW$168, DW_AT_decl_line(0x790)
    2377                            .dwattr $C$DW$168, DW_AT_decl_column(0x16)
    2378                            .dwattr $C$DW$168, DW_AT_TI_max_frame_size(0x10)
    2379                            .dwpsn  file "../Source/tasks.c",line 1937,column 1,is_stmt,address xTaskRemoveFromEventList,i
    2380                    
    2381                            .dwfde $C$DW$CIE, xTaskRemoveFromEventList
    2382                    $C$DW$169       .dwtag  DW_TAG_formal_parameter, DW_AT_name("pxEventList")
    2383                            .dwattr $C$DW$169, DW_AT_TI_symbol_name("pxEventList")
    2384                            .dwattr $C$DW$169, DW_AT_type(*$C$DW$T$90)
    2385                            .dwattr $C$DW$169, DW_AT_location[DW_OP_reg0]
    2386                    
    2387                    ;*****************************************************************************
    2388                    ;* FUNCTION NAME: xTaskRemoveFromEventList                                   *
    2389                    ;*                                                                           *
    2390                    ;*   Regs Modified     : A1,A2,A3,A4,V9,SP,LR,SR                             *
    2391                    ;*   Regs Used         : A1,A2,A3,A4,V9,SP,LR,SR                             *
    2392                    ;*   Local Frame Size  : 0 Args + 12 Auto + 4 Save = 16 byte                 *
    2393                    ;*****************************************************************************
    2394 000004fc           xTaskRemoveFromEventList:
    2395                    ;* --------------------------------------------------------------------------*
    2396                            .dwcfi  cfa_offset, 0
    2397 000004fc B50E              PUSH      {A2, A3, A4, LR}      ; [DPU_3_PIPE]  ; [ORIG 16-BIT INS]
    2398                            .dwcfi  cfa_offset, 16
    2399                            .dwcfi  save_reg_to_mem, 14, -4
    2400                            .dwcfi  save_reg_to_mem, 3, -8
    2401                            .dwcfi  save_reg_to_mem, 2, -12
    2402                            .dwcfi  save_reg_to_mem, 1, -16
    2403                    $C$DW$170       .dwtag  DW_TAG_variable, DW_AT_name("pxEventList")
    2404                            .dwattr $C$DW$170, DW_AT_TI_symbol_name("pxEventList")
    2405                            .dwattr $C$DW$170, DW_AT_type(*$C$DW$T$90)
    2406                            .dwattr $C$DW$170, DW_AT_location[DW_OP_breg13 0]
TI ARM Assembler PC v5.1.7 Thu Oct 02 08:28:40 2014

Tools Copyright (c) 1996-2014 Texas Instruments Incorporated
tasks.asm                                                            PAGE   45

    2407                    $C$DW$171       .dwtag  DW_TAG_variable, DW_AT_name("pxUnblockedTCB")
    2408                            .dwattr $C$DW$171, DW_AT_TI_symbol_name("pxUnblockedTCB")
    2409                            .dwattr $C$DW$171, DW_AT_type(*$C$DW$T$98)
    2410                            .dwattr $C$DW$171, DW_AT_location[DW_OP_breg13 4]
    2411                    $C$DW$172       .dwtag  DW_TAG_variable, DW_AT_name("xReturn")
    2412                            .dwattr $C$DW$172, DW_AT_TI_symbol_name("xReturn")
    2413                            .dwattr $C$DW$172, DW_AT_type(*$C$DW$T$12)
    2414                            .dwattr $C$DW$172, DW_AT_location[DW_OP_breg13 8]
    2415 000004fe 9000              STR       A1, [SP, #0]          ; [DPU_3_PIPE] |1937|  ; [ORIG 16-BIT INS]
    2416                            .dwpsn  file "../Source/tasks.c",line 1954,column 2,is_stmt,isa 1
    2417 00000500 9800              LDR       A1, [SP, #0]          ; [DPU_3_PIPE] |1954|  ; [ORIG 16-BIT INS]
    2418 00000502 68C0              LDR       A1, [A1, #12]         ; [DPU_3_PIPE] |1954|  ; [ORIG 16-BIT INS]
    2419 00000504 68C0              LDR       A1, [A1, #12]         ; [DPU_3_PIPE] |1954|  ; [ORIG 16-BIT INS]
    2420 00000506 9001              STR       A1, [SP, #4]          ; [DPU_3_PIPE] |1954|  ; [ORIG 16-BIT INS]
    2421                            .dwpsn  file "../Source/tasks.c",line 1956,column 2,is_stmt,isa 1
    2422 00000508 9801              LDR       A1, [SP, #4]          ; [DPU_3_PIPE] |1956|  ; [ORIG 16-BIT INS]
    2423 0000050a 3018              ADDS      A1, A1, #24           ; [DPU_3_PIPE] |1956|  ; [ORIG 16-BIT INS]
    2424                    $C$DW$173       .dwtag  DW_TAG_TI_branch
    2425                            .dwattr $C$DW$173, DW_AT_low_pc(0x00)
    2426                            .dwattr $C$DW$173, DW_AT_name("uxListRemove")
    2427                            .dwattr $C$DW$173, DW_AT_TI_call
    2428 0000050c FFFEF7FF!         BL        uxListRemove          ; [DPU_3_PIPE] |1956|  ; [KEEP 32-BIT INS]
    2429                            ; CALL OCCURS {uxListRemove }    ; [] |1956| 
    2430                            .dwpsn  file "../Source/tasks.c",line 1958,column 2,is_stmt,isa 1
    2431 00000510 4897              LDR       A1, $C$CON24          ; [DPU_3_PIPE] |1958|  ; [ORIG 16-BIT INS]
    2432 00000512 6800              LDR       A1, [A1, #0]          ; [DPU_3_PIPE] |1958|  ; [ORIG 16-BIT INS]
    2433 00000514 B9C8              CBNZ      A1, ||$C$L43||        ; []  ; [ORIG 16-BIT INS]
    2434                            ; BRANCHCC OCCURS {||$C$L43||}   ; [] |1958| 
    2435                    ;* --------------------------------------------------------------------------*
    2436                            .dwpsn  file "../Source/tasks.c",line 1960,column 3,is_stmt,isa 1
    2437 00000516 9801              LDR       A1, [SP, #4]          ; [DPU_3_PIPE] |1960|  ; [ORIG 16-BIT INS]
    2438 00000518 1D00              ADDS      A1, A1, #4            ; [DPU_3_PIPE] |1960|  ; [ORIG 16-BIT INS]
    2439                    $C$DW$174       .dwtag  DW_TAG_TI_branch
    2440                            .dwattr $C$DW$174, DW_AT_low_pc(0x00)
    2441                            .dwattr $C$DW$174, DW_AT_name("uxListRemove")
    2442                            .dwattr $C$DW$174, DW_AT_TI_call
    2443 0000051a FFFEF7FF!         BL        uxListRemove          ; [DPU_3_PIPE] |1960|  ; [KEEP 32-BIT INS]
    2444                            ; CALL OCCURS {uxListRemove }    ; [] |1960| 
    2445                            .dwpsn  file "../Source/tasks.c",line 1961,column 3,is_stmt,isa 1
    2446 0000051e 486B              LDR       A1, $C$CON21          ; [DPU_3_PIPE] |1961|  ; [ORIG 16-BIT INS]
    2447 00000520 9901              LDR       A2, [SP, #4]          ; [DPU_3_PIPE] |1961|  ; [ORIG 16-BIT INS]
    2448 00000522 6800              LDR       A1, [A1, #0]          ; [DPU_3_PIPE] |1961|  ; [ORIG 16-BIT INS]
    2449 00000524 6AC9              LDR       A2, [A2, #44]         ; [DPU_3_PIPE] |1961|  ; [ORIG 16-BIT INS]
    2450 00000526 4288              CMP       A1, A2                ; [DPU_3_PIPE] |1961|  ; [ORIG 16-BIT INS]
    2451 00000528 D203              BCS       ||$C$L42||            ; [DPU_3_PIPE] |1961|  ; [ORIG 16-BIT INS]
    2452                            ; BRANCHCC OCCURS {||$C$L42||}   ; [] |1961| 
    2453                    ;* --------------------------------------------------------------------------*
    2454 0000052a 9801              LDR       A1, [SP, #4]          ; [DPU_3_PIPE] |1961|  ; [ORIG 16-BIT INS]
    2455 0000052c 4967              LDR       A2, $C$CON21          ; [DPU_3_PIPE] |1961|  ; [ORIG 16-BIT INS]
    2456 0000052e 6AC0              LDR       A1, [A1, #44]         ; [DPU_3_PIPE] |1961|  ; [ORIG 16-BIT INS]
    2457 00000530 6008              STR       A1, [A2, #0]          ; [DPU_3_PIPE] |1961|  ; [ORIG 16-BIT INS]
    2458                    ;* --------------------------------------------------------------------------*
    2459 00000532           ||$C$L42||:    
    2460 00000532 9801              LDR       A1, [SP, #4]          ; [DPU_3_PIPE] |1961|  ; [ORIG 16-BIT INS]
    2461 00000534 6AC3              LDR       A4, [A1, #44]         ; [DPU_3_PIPE] |1961|  ; [ORIG 16-BIT INS]
TI ARM Assembler PC v5.1.7 Thu Oct 02 08:28:40 2014

Tools Copyright (c) 1996-2014 Texas Instruments Incorporated
tasks.asm                                                            PAGE   46

    2462 00000536 9901              LDR       A2, [SP, #4]          ; [DPU_3_PIPE] |1961|  ; [ORIG 16-BIT INS]
    2463 00000538 4865              LDR       A1, $C$CON22          ; [DPU_3_PIPE] |1961|  ; [ORIG 16-BIT INS]
    2464 0000053a 009A              LSLS      A3, A4, #2            ; [DPU_3_PIPE] |1961|  ; [ORIG 16-BIT INS]
    2465 0000053c 1D09              ADDS      A2, A2, #4            ; [DPU_3_PIPE] |1961|  ; [ORIG 16-BIT INS]
    2466 0000053e 1203EB02          ADD       A3, A3, A4, LSL #4    ; [DPU_3_PIPE] |1961|  ; [KEEP 32-BIT INS]
    2467 00000542 1880              ADDS      A1, A1, A3            ; [DPU_3_PIPE] |1961|  ; [ORIG 16-BIT INS]
    2468                    $C$DW$175       .dwtag  DW_TAG_TI_branch
    2469                            .dwattr $C$DW$175, DW_AT_low_pc(0x00)
    2470                            .dwattr $C$DW$175, DW_AT_name("vListInsertEnd")
    2471                            .dwattr $C$DW$175, DW_AT_TI_call
    2472 00000544 FFFEF7FF!         BL        vListInsertEnd        ; [DPU_3_PIPE] |1961|  ; [KEEP 32-BIT INS]
    2473                            ; CALL OCCURS {vListInsertEnd }  ; [] |1961| 
    2474                            .dwpsn  file "../Source/tasks.c",line 1962,column 2,is_stmt,isa 1
    2475 00000548 E004              B         ||$C$L44||            ; [DPU_3_PIPE] |1962|  ; [ORIG 16-BIT INS]
    2476                            ; BRANCH OCCURS {||$C$L44||}     ; [] |1962| 
    2477                    ;* --------------------------------------------------------------------------*
    2478 0000054a           ||$C$L43||:    
    2479                            .dwpsn  file "../Source/tasks.c",line 1967,column 3,is_stmt,isa 1
    2480 0000054a 9901              LDR       A2, [SP, #4]          ; [DPU_3_PIPE] |1967|  ; [ORIG 16-BIT INS]
    2481 0000054c 4889              LDR       A1, $C$CON25          ; [DPU_3_PIPE] |1967|  ; [ORIG 16-BIT INS]
    2482 0000054e 3118              ADDS      A2, A2, #24           ; [DPU_3_PIPE] |1967|  ; [ORIG 16-BIT INS]
    2483                    $C$DW$176       .dwtag  DW_TAG_TI_branch
    2484                            .dwattr $C$DW$176, DW_AT_low_pc(0x00)
    2485                            .dwattr $C$DW$176, DW_AT_name("vListInsertEnd")
    2486                            .dwattr $C$DW$176, DW_AT_TI_call
    2487 00000550 FFFEF7FF!         BL        vListInsertEnd        ; [DPU_3_PIPE] |1967|  ; [KEEP 32-BIT INS]
    2488                            ; CALL OCCURS {vListInsertEnd }  ; [] |1967| 
    2489                    ;* --------------------------------------------------------------------------*
    2490 00000554           ||$C$L44||:    
    2491                            .dwpsn  file "../Source/tasks.c",line 1970,column 2,is_stmt,isa 1
    2492 00000554 4871              LDR       A1, $C$CON23          ; [DPU_3_PIPE] |1970|  ; [ORIG 16-BIT INS]
    2493 00000556 9901              LDR       A2, [SP, #4]          ; [DPU_3_PIPE] |1970|  ; [ORIG 16-BIT INS]
    2494 00000558 6800              LDR       A1, [A1, #0]          ; [DPU_3_PIPE] |1970|  ; [ORIG 16-BIT INS]
    2495 0000055a 6AC9              LDR       A2, [A2, #44]         ; [DPU_3_PIPE] |1970|  ; [ORIG 16-BIT INS]
    2496 0000055c 6AC0              LDR       A1, [A1, #44]         ; [DPU_3_PIPE] |1970|  ; [ORIG 16-BIT INS]
    2497 0000055e 4288              CMP       A1, A2                ; [DPU_3_PIPE] |1970|  ; [ORIG 16-BIT INS]
    2498 00000560 D802              BHI       ||$C$L45||            ; [DPU_3_PIPE] |1970|  ; [ORIG 16-BIT INS]
    2499                            ; BRANCHCC OCCURS {||$C$L45||}   ; [] |1970| 
    2500                    ;* --------------------------------------------------------------------------*
    2501                            .dwpsn  file "../Source/tasks.c",line 1976,column 3,is_stmt,isa 1
    2502 00000562 2001              MOVS      A1, #1                ; [DPU_3_PIPE] |1976|  ; [ORIG 16-BIT INS]
    2503 00000564 9002              STR       A1, [SP, #8]          ; [DPU_3_PIPE] |1976|  ; [ORIG 16-BIT INS]
    2504                            .dwpsn  file "../Source/tasks.c",line 1977,column 2,is_stmt,isa 1
    2505 00000566 E001              B         ||$C$L46||            ; [DPU_3_PIPE] |1977|  ; [ORIG 16-BIT INS]
    2506                            ; BRANCH OCCURS {||$C$L46||}     ; [] |1977| 
    2507                    ;* --------------------------------------------------------------------------*
    2508 00000568           ||$C$L45||:    
    2509                            .dwpsn  file "../Source/tasks.c",line 1980,column 3,is_stmt,isa 1
    2510 00000568 2000              MOVS      A1, #0                ; [DPU_3_PIPE] |1980|  ; [ORIG 16-BIT INS]
    2511 0000056a 9002              STR       A1, [SP, #8]          ; [DPU_3_PIPE] |1980|  ; [ORIG 16-BIT INS]
    2512                    ;* --------------------------------------------------------------------------*
    2513 0000056c           ||$C$L46||:    
    2514                            .dwpsn  file "../Source/tasks.c",line 1983,column 2,is_stmt,isa 1
    2515 0000056c 9802              LDR       A1, [SP, #8]          ; [DPU_3_PIPE] |1983|  ; [ORIG 16-BIT INS]
    2516                            .dwpsn  file "../Source/tasks.c",line 1984,column 1,is_stmt,isa 1
TI ARM Assembler PC v5.1.7 Thu Oct 02 08:28:40 2014

Tools Copyright (c) 1996-2014 Texas Instruments Incorporated
tasks.asm                                                            PAGE   47

    2517                    $C$DW$177       .dwtag  DW_TAG_TI_branch
    2518                            .dwattr $C$DW$177, DW_AT_low_pc(0x00)
    2519                            .dwattr $C$DW$177, DW_AT_TI_return
    2520 0000056e BD0E              POP       {A2, A3, A4, PC}      ; [DPU_3_PIPE]  ; [ORIG 16-BIT INS]
    2521                            .dwcfi  cfa_offset, 0
    2522                            ; BRANCH OCCURS                  ; [] 
    2523                            .dwattr $C$DW$168, DW_AT_TI_end_file("../Source/tasks.c")
    2524                            .dwattr $C$DW$168, DW_AT_TI_end_line(0x7c0)
    2525                            .dwattr $C$DW$168, DW_AT_TI_end_column(0x01)
    2526                            .dwendentry
    2527                            .dwendtag $C$DW$168
    2528                    
    2529 00000570                   .sect   ".text"
    2530                            .clink
    2531                            .thumbfunc vTaskSetTimeOutState
    2532 00000570                   .thumb
    2533                            .global vTaskSetTimeOutState
    2534                    
    2535                    $C$DW$178       .dwtag  DW_TAG_subprogram, DW_AT_name("vTaskSetTimeOutState")
    2536                            .dwattr $C$DW$178, DW_AT_low_pc(vTaskSetTimeOutState)
    2537                            .dwattr $C$DW$178, DW_AT_high_pc(0x00)
    2538                            .dwattr $C$DW$178, DW_AT_TI_symbol_name("vTaskSetTimeOutState")
    2539                            .dwattr $C$DW$178, DW_AT_external
    2540                            .dwattr $C$DW$178, DW_AT_TI_begin_file("../Source/tasks.c")
    2541                            .dwattr $C$DW$178, DW_AT_TI_begin_line(0x7c3)
    2542                            .dwattr $C$DW$178, DW_AT_TI_begin_column(0x06)
    2543                            .dwattr $C$DW$178, DW_AT_decl_file("../Source/tasks.c")
    2544                            .dwattr $C$DW$178, DW_AT_decl_line(0x7c3)
    2545                            .dwattr $C$DW$178, DW_AT_decl_column(0x06)
    2546                            .dwattr $C$DW$178, DW_AT_TI_max_frame_size(0x08)
    2547                            .dwpsn  file "../Source/tasks.c",line 1988,column 1,is_stmt,address vTaskSetTimeOutState,isa 1
    2548                    
    2549                            .dwfde $C$DW$CIE, vTaskSetTimeOutState
    2550                    $C$DW$179       .dwtag  DW_TAG_formal_parameter, DW_AT_name("pxTimeOut")
    2551                            .dwattr $C$DW$179, DW_AT_TI_symbol_name("pxTimeOut")
    2552                            .dwattr $C$DW$179, DW_AT_type(*$C$DW$T$94)
    2553                            .dwattr $C$DW$179, DW_AT_location[DW_OP_reg0]
    2554                    
    2555                    ;*****************************************************************************
    2556                    ;* FUNCTION NAME: vTaskSetTimeOutState                                       *
    2557                    ;*                                                                           *
    2558                    ;*   Regs Modified     : A1,A2,SP                                            *
    2559                    ;*   Regs Used         : A1,A2,SP,LR                                         *
    2560                    ;*   Local Frame Size  : 0 Args + 4 Auto + 0 Save = 4 byte                   *
    2561                    ;*****************************************************************************
    2562 00000570           vTaskSetTimeOutState:
    2563                    ;* --------------------------------------------------------------------------*
    2564                            .dwcfi  cfa_offset, 0
    2565 00000570 0D08F1AD          SUB       SP, SP, #8            ; [DPU_3_PIPE]  ; [KEEP 32-BIT INS]
    2566                            .dwcfi  cfa_offset, 8
    2567                    $C$DW$180       .dwtag  DW_TAG_variable, DW_AT_name("pxTimeOut")
    2568                            .dwattr $C$DW$180, DW_AT_TI_symbol_name("pxTimeOut")
    2569                            .dwattr $C$DW$180, DW_AT_type(*$C$DW$T$94)
    2570                            .dwattr $C$DW$180, DW_AT_location[DW_OP_breg13 0]
    2571 00000574 9000              STR       A1, [SP, #0]          ; [DPU_3_PIPE] |1988|  ; [ORIG 16-BIT INS]
TI ARM Assembler PC v5.1.7 Thu Oct 02 08:28:40 2014

Tools Copyright (c) 1996-2014 Texas Instruments Incorporated
tasks.asm                                                            PAGE   48

    2572                            .dwpsn  file "../Source/tasks.c",line 1990,column 2,is_stmt,isa 1
    2573 00000576 4828              LDR       A1, $C$CON18          ; [DPU_3_PIPE] |1990|  ; [ORIG 16-BIT INS]
    2574 00000578 9900              LDR       A2, [SP, #0]          ; [DPU_3_PIPE] |1990|  ; [ORIG 16-BIT INS]
    2575 0000057a 6800              LDR       A1, [A1, #0]          ; [DPU_3_PIPE] |1990|  ; [ORIG 16-BIT INS]
    2576 0000057c 6008              STR       A1, [A2, #0]          ; [DPU_3_PIPE] |1990|  ; [ORIG 16-BIT INS]
    2577                            .dwpsn  file "../Source/tasks.c",line 1991,column 2,is_stmt,isa 1
    2578 0000057e 483F              LDR       A1, $C$CON20          ; [DPU_3_PIPE] |1991|  ; [ORIG 16-BIT INS]
    2579 00000580 9900              LDR       A2, [SP, #0]          ; [DPU_3_PIPE] |1991|  ; [ORIG 16-BIT INS]
    2580 00000582 6800              LDR       A1, [A1, #0]          ; [DPU_3_PIPE] |1991|  ; [ORIG 16-BIT INS]
    2581 00000584 6048              STR       A1, [A2, #4]          ; [DPU_3_PIPE] |1991|  ; [ORIG 16-BIT INS]
    2582                            .dwpsn  file "../Source/tasks.c",line 1992,column 1,is_stmt,isa 1
    2583 00000586 B002              ADD       SP, SP, #8            ; [DPU_3_PIPE]  ; [ORIG 16-BIT INS]
    2584                            .dwcfi  cfa_offset, 0
    2585                    $C$DW$181       .dwtag  DW_TAG_TI_branch
    2586                            .dwattr $C$DW$181, DW_AT_low_pc(0x00)
    2587                            .dwattr $C$DW$181, DW_AT_TI_return
    2588 00000588 4770              BX        LR                    ; [DPU_3_PIPE]  ; [ORIG 16-BIT INS]
    2589                            ; BRANCH OCCURS                  ; [] 
    2590                            .dwattr $C$DW$178, DW_AT_TI_end_file("../Source/tasks.c")
    2591                            .dwattr $C$DW$178, DW_AT_TI_end_line(0x7c8)
    2592                            .dwattr $C$DW$178, DW_AT_TI_end_column(0x01)
    2593                            .dwendentry
    2594                            .dwendtag $C$DW$178
    2595                    
    2596                    ;******************************************************************************
    2597                    ;* CONSTANT TABLE                                                             *
    2598                    ;******************************************************************************
    2599 0000058a                   .sect   ".text"
    2600                            .align  4
    2601 0000058a 000046C0! ||$C$CON14||:   .bits   xMissedYield,32
         0000058e 00000000 
    2602                            .align  4
    2603 0000058e 00000000! ||$C$CON15||:   .bits   uxCurrentNumberOfTasks,32
         00000592 00000000 
    2604 00000594                   .sect   ".text"
    2605                            .clink
    2606                            .thumbfunc xTaskCheckForTimeOut
    2607 00000594                   .thumb
    2608                            .global xTaskCheckForTimeOut
    2609                    
    2610                    $C$DW$182       .dwtag  DW_TAG_subprogram, DW_AT_name("xTaskCheckForTimeOut")
    2611                            .dwattr $C$DW$182, DW_AT_low_pc(xTaskCheckForTimeOut)
    2612                            .dwattr $C$DW$182, DW_AT_high_pc(0x00)
    2613                            .dwattr $C$DW$182, DW_AT_TI_symbol_name("xTaskCheckForTimeOut")
    2614                            .dwattr $C$DW$182, DW_AT_external
    2615                            .dwattr $C$DW$182, DW_AT_type(*$C$DW$T$12)
    2616                            .dwattr $C$DW$182, DW_AT_TI_begin_file("../Source/tasks.c")
    2617                            .dwattr $C$DW$182, DW_AT_TI_begin_line(0x7cb)
    2618                            .dwattr $C$DW$182, DW_AT_TI_begin_column(0x0f)
    2619                            .dwattr $C$DW$182, DW_AT_decl_file("../Source/tasks.c")
    2620                            .dwattr $C$DW$182, DW_AT_decl_line(0x7cb)
    2621                            .dwattr $C$DW$182, DW_AT_decl_column(0x0f)
    2622                            .dwattr $C$DW$182, DW_AT_TI_max_frame_size(0x10)
    2623                            .dwpsn  file "../Source/tasks.c",line 1996,column 1,is_stmt,address xTaskCheckForTimeOut,isa 1
    2624                    
TI ARM Assembler PC v5.1.7 Thu Oct 02 08:28:40 2014

Tools Copyright (c) 1996-2014 Texas Instruments Incorporated
tasks.asm                                                            PAGE   49

    2625                            .dwfde $C$DW$CIE, xTaskCheckForTimeOut
    2626                    $C$DW$183       .dwtag  DW_TAG_formal_parameter, DW_AT_name("pxTimeOut")
    2627                            .dwattr $C$DW$183, DW_AT_TI_symbol_name("pxTimeOut")
    2628                            .dwattr $C$DW$183, DW_AT_type(*$C$DW$T$94)
    2629                            .dwattr $C$DW$183, DW_AT_location[DW_OP_reg0]
    2630                    $C$DW$184       .dwtag  DW_TAG_formal_parameter, DW_AT_name("pxTicksToWait")
    2631                            .dwattr $C$DW$184, DW_AT_TI_symbol_name("pxTicksToWait")
    2632                            .dwattr $C$DW$184, DW_AT_type(*$C$DW$T$84)
    2633                            .dwattr $C$DW$184, DW_AT_location[DW_OP_reg1]
    2634                    
    2635                    ;*****************************************************************************
    2636                    ;* FUNCTION NAME: xTaskCheckForTimeOut                                       *
    2637                    ;*                                                                           *
    2638                    ;*   Regs Modified     : A1,A2,A3,A4,V9,SP,LR,SR                             *
    2639                    ;*   Regs Used         : A1,A2,A3,A4,V9,SP,LR,SR                             *
    2640                    ;*   Local Frame Size  : 0 Args + 12 Auto + 4 Save = 16 byte                 *
    2641                    ;*****************************************************************************
    2642 00000594           xTaskCheckForTimeOut:
    2643                    ;* --------------------------------------------------------------------------*
    2644                            .dwcfi  cfa_offset, 0
    2645 00000594 B50E              PUSH      {A2, A3, A4, LR}      ; [DPU_3_PIPE]  ; [ORIG 16-BIT INS]
    2646                            .dwcfi  cfa_offset, 16
    2647                            .dwcfi  save_reg_to_mem, 14, -4
    2648                            .dwcfi  save_reg_to_mem, 3, -8
    2649                            .dwcfi  save_reg_to_mem, 2, -12
    2650                            .dwcfi  save_reg_to_mem, 1, -16
    2651                    $C$DW$185       .dwtag  DW_TAG_variable, DW_AT_name("pxTimeOut")
    2652                            .dwattr $C$DW$185, DW_AT_TI_symbol_name("pxTimeOut")
    2653                            .dwattr $C$DW$185, DW_AT_type(*$C$DW$T$94)
    2654                            .dwattr $C$DW$185, DW_AT_location[DW_OP_breg13 0]
    2655                    $C$DW$186       .dwtag  DW_TAG_variable, DW_AT_name("pxTicksToWait")
    2656                            .dwattr $C$DW$186, DW_AT_TI_symbol_name("pxTicksToWait")
    2657                            .dwattr $C$DW$186, DW_AT_type(*$C$DW$T$84)
    2658                            .dwattr $C$DW$186, DW_AT_location[DW_OP_breg13 4]
    2659                    $C$DW$187       .dwtag  DW_TAG_variable, DW_AT_name("xReturn")
    2660                            .dwattr $C$DW$187, DW_AT_TI_symbol_name("xReturn")
    2661                            .dwattr $C$DW$187, DW_AT_type(*$C$DW$T$12)
    2662                            .dwattr $C$DW$187, DW_AT_location[DW_OP_breg13 8]
    2663 00000596 9101              STR       A2, [SP, #4]          ; [DPU_3_PIPE] |1996|  ; [ORIG 16-BIT INS]
    2664 00000598 9000              STR       A1, [SP, #0]          ; [DPU_3_PIPE] |1996|  ; [ORIG 16-BIT INS]
    2665                            .dwpsn  file "../Source/tasks.c",line 2002,column 2,is_stmt,isa 1
    2666                    $C$DW$188       .dwtag  DW_TAG_TI_branch
    2667                            .dwattr $C$DW$188, DW_AT_low_pc(0x00)
    2668                            .dwattr $C$DW$188, DW_AT_name("vPortEnterCritical")
    2669                            .dwattr $C$DW$188, DW_AT_TI_call
    2670 0000059a FFFEF7FF!         BL        vPortEnterCritical    ; [DPU_3_PIPE] |2002|  ; [KEEP 32-BIT INS]
    2671                            ; CALL OCCURS {vPortEnterCritical }  ; [] |2002| 
    2672                            .dwpsn  file "../Source/tasks.c",line 2015,column 3,is_stmt,isa 1
    2673 0000059e 491E              LDR       A2, $C$CON18          ; [DPU_3_PIPE] |2015|  ; [ORIG 16-BIT INS]
    2674 000005a0 9800              LDR       A1, [SP, #0]          ; [DPU_3_PIPE] |2015|  ; [ORIG 16-BIT INS]
    2675 000005a2 6809              LDR       A2, [A2, #0]          ; [DPU_3_PIPE] |2015|  ; [ORIG 16-BIT INS]
    2676 000005a4 6800              LDR       A1, [A1, #0]          ; [DPU_3_PIPE] |2015|  ; [ORIG 16-BIT INS]
    2677 000005a6 4288              CMP       A1, A2                ; [DPU_3_PIPE] |2015|  ; [ORIG 16-BIT INS]
    2678 000005a8 D008              BEQ       ||$C$L47||            ; [DPU_3_PIPE] |2015|  ; [ORIG 16-BIT INS]
    2679                            ; BRANCHCC OCCURS {||$C$L47||}   ; [] |2015| 
TI ARM Assembler PC v5.1.7 Thu Oct 02 08:28:40 2014

Tools Copyright (c) 1996-2014 Texas Instruments Incorporated
tasks.asm                                                            PAGE   50

    2680                    ;* --------------------------------------------------------------------------*
    2681 000005aa 9800              LDR       A1, [SP, #0]          ; [DPU_3_PIPE] |2015|  ; [ORIG 16-BIT INS]
    2682 000005ac 4933              LDR       A2, $C$CON20          ; [DPU_3_PIPE] |2015|  ; [ORIG 16-BIT INS]
    2683 000005ae 6840              LDR       A1, [A1, #4]          ; [DPU_3_PIPE] |2015|  ; [ORIG 16-BIT INS]
    2684 000005b0 6809              LDR       A2, [A2, #0]          ; [DPU_3_PIPE] |2015|  ; [ORIG 16-BIT INS]
    2685 000005b2 4288              CMP       A1, A2                ; [DPU_3_PIPE] |2015|  ; [ORIG 16-BIT INS]
    2686 000005b4 D802              BHI       ||$C$L47||            ; [DPU_3_PIPE] |2015|  ; [ORIG 16-BIT INS]
    2687                            ; BRANCHCC OCCURS {||$C$L47||}   ; [] |2015| 
    2688                    ;* --------------------------------------------------------------------------*
    2689                            .dwpsn  file "../Source/tasks.c",line 2021,column 4,is_stmt,isa 1
    2690 000005b6 2001              MOVS      A1, #1                ; [DPU_3_PIPE] |2021|  ; [ORIG 16-BIT INS]
    2691 000005b8 9002              STR       A1, [SP, #8]          ; [DPU_3_PIPE] |2021|  ; [ORIG 16-BIT INS]
    2692                            .dwpsn  file "../Source/tasks.c",line 2022,column 3,is_stmt,isa 1
    2693 000005ba E019              B         ||$C$L49||            ; [DPU_3_PIPE] |2022|  ; [ORIG 16-BIT INS]
    2694                            ; BRANCH OCCURS {||$C$L49||}     ; [] |2022| 
    2695                    ;* --------------------------------------------------------------------------*
    2696 000005bc           ||$C$L47||:    
    2697                            .dwpsn  file "../Source/tasks.c",line 2023,column 8,is_stmt,isa 1
    2698 000005bc 9A00              LDR       A3, [SP, #0]          ; [DPU_3_PIPE] |2023|  ; [ORIG 16-BIT INS]
    2699 000005be 482F              LDR       A1, $C$CON20          ; [DPU_3_PIPE] |2023|  ; [ORIG 16-BIT INS]
    2700 000005c0 9901              LDR       A2, [SP, #4]          ; [DPU_3_PIPE] |2023|  ; [ORIG 16-BIT INS]
    2701 000005c2 6852              LDR       A3, [A3, #4]          ; [DPU_3_PIPE] |2023|  ; [ORIG 16-BIT INS]
    2702 000005c4 6800              LDR       A1, [A1, #0]          ; [DPU_3_PIPE] |2023|  ; [ORIG 16-BIT INS]
    2703 000005c6 6809              LDR       A2, [A2, #0]          ; [DPU_3_PIPE] |2023|  ; [ORIG 16-BIT INS]
    2704 000005c8 1A80              SUBS      A1, A1, A3            ; [DPU_3_PIPE] |2023|  ; [ORIG 16-BIT INS]
    2705 000005ca 4281              CMP       A2, A1                ; [DPU_3_PIPE] |2023|  ; [ORIG 16-BIT INS]
    2706 000005cc D90E              BLS       ||$C$L48||            ; [DPU_3_PIPE] |2023|  ; [ORIG 16-BIT INS]
    2707                            ; BRANCHCC OCCURS {||$C$L48||}   ; [] |2023| 
    2708                    ;* --------------------------------------------------------------------------*
    2709                            .dwpsn  file "../Source/tasks.c",line 2026,column 4,is_stmt,isa 1
    2710 000005ce 482B              LDR       A1, $C$CON20          ; [DPU_3_PIPE] |2026|  ; [ORIG 16-BIT INS]
    2711 000005d0 9900              LDR       A2, [SP, #0]          ; [DPU_3_PIPE] |2026|  ; [ORIG 16-BIT INS]
    2712 000005d2 9A01              LDR       A3, [SP, #4]          ; [DPU_3_PIPE] |2026|  ; [ORIG 16-BIT INS]
    2713 000005d4 6803              LDR       A4, [A1, #0]          ; [DPU_3_PIPE] |2026|  ; [ORIG 16-BIT INS]
    2714 000005d6 6849              LDR       A2, [A2, #4]          ; [DPU_3_PIPE] |2026|  ; [ORIG 16-BIT INS]
    2715 000005d8 6810              LDR       A1, [A3, #0]          ; [DPU_3_PIPE] |2026|  ; [ORIG 16-BIT INS]
    2716 000005da 1AC0              SUBS      A1, A1, A4            ; [DPU_3_PIPE] |2026|  ; [ORIG 16-BIT INS]
    2717 000005dc 1809              ADDS      A2, A2, A1            ; [DPU_3_PIPE] |2026|  ; [ORIG 16-BIT INS]
    2718 000005de 6011              STR       A2, [A3, #0]          ; [DPU_3_PIPE] |2026|  ; [ORIG 16-BIT INS]
    2719                            .dwpsn  file "../Source/tasks.c",line 2027,column 4,is_stmt,isa 1
    2720 000005e0 9800              LDR       A1, [SP, #0]          ; [DPU_3_PIPE] |2027|  ; [ORIG 16-BIT INS]
    2721                    $C$DW$189       .dwtag  DW_TAG_TI_branch
