TI ARM Assembler PC v5.1.7 Thu Oct 30 20:25:15 2014

Tools Copyright (c) 1996-2014 Texas Instruments Incorporated
uartstdio.asm                                                        PAGE    1

       1                    ;******************************************************************************
       2                    ;* TI ARM C/C++ Codegen                                             PC v5.1.7 *
       3                    ;* Date/Time created: Thu Oct 30 20:25:15 2014                                *
       4                    ;******************************************************************************
       5                            .compiler_opts --abi=eabi --arm_vmrs_si_workaround=off --code_state=16 --disable_dual_state --
       6 00000000                   .thumb
       7                    
       8                    $C$DW$CU        .dwtag  DW_TAG_compile_unit
       9                            .dwattr $C$DW$CU, DW_AT_name("../Drivers/uartstdio.c")
      10                            .dwattr $C$DW$CU, DW_AT_producer("TI TI ARM C/C++ Codegen PC v5.1.7 Copyright (c) 1996-2014 Te
      11                            .dwattr $C$DW$CU, DW_AT_TI_version(0x01)
      12                            .dwattr $C$DW$CU, DW_AT_comp_dir("H:\EECS_388\TI_ARM_Projects\FreeRTOS_Timer\Debug")
      13                    
      14                    $C$DW$1 .dwtag  DW_TAG_subprogram, DW_AT_name("SysCtlPeripheralPresent")
      15                            .dwattr $C$DW$1, DW_AT_TI_symbol_name("SysCtlPeripheralPresent")
      16                            .dwattr $C$DW$1, DW_AT_type(*$C$DW$T$34)
      17                            .dwattr $C$DW$1, DW_AT_declaration
      18                            .dwattr $C$DW$1, DW_AT_external
      19                            .dwattr $C$DW$1, DW_AT_decl_file("C:/TI_CodeComposer/StellarisWare-LM3S1968/driverlib/sysctl.h
      20                            .dwattr $C$DW$1, DW_AT_decl_line(0x248)
      21                            .dwattr $C$DW$1, DW_AT_decl_column(0x11)
      22                    $C$DW$2 .dwtag  DW_TAG_formal_parameter
      23                            .dwattr $C$DW$2, DW_AT_type(*$C$DW$T$13)
      24                            .dwendtag $C$DW$1
      25                    
      26                    
      27                    $C$DW$3 .dwtag  DW_TAG_subprogram, DW_AT_name("SysCtlPeripheralEnable")
      28                            .dwattr $C$DW$3, DW_AT_TI_symbol_name("SysCtlPeripheralEnable")
      29                            .dwattr $C$DW$3, DW_AT_declaration
      30                            .dwattr $C$DW$3, DW_AT_external
      31                            .dwattr $C$DW$3, DW_AT_decl_file("C:/TI_CodeComposer/StellarisWare-LM3S1968/driverlib/sysctl.h
      32                            .dwattr $C$DW$3, DW_AT_decl_line(0x24d)
      33                            .dwattr $C$DW$3, DW_AT_decl_column(0x0d)
      34                    $C$DW$4 .dwtag  DW_TAG_formal_parameter
      35                            .dwattr $C$DW$4, DW_AT_type(*$C$DW$T$13)
      36                            .dwendtag $C$DW$3
      37                    
      38                    
      39                    $C$DW$5 .dwtag  DW_TAG_subprogram, DW_AT_name("SysCtlClockGet")
      40                            .dwattr $C$DW$5, DW_AT_TI_symbol_name("SysCtlClockGet")
      41                            .dwattr $C$DW$5, DW_AT_type(*$C$DW$T$13)
      42                            .dwattr $C$DW$5, DW_AT_declaration
      43                            .dwattr $C$DW$5, DW_AT_external
      44                            .dwattr $C$DW$5, DW_AT_decl_file("C:/TI_CodeComposer/StellarisWare-LM3S1968/driverlib/sysctl.h
      45                            .dwattr $C$DW$5, DW_AT_decl_line(0x268)
      46                            .dwattr $C$DW$5, DW_AT_decl_column(0x16)
      47                    
      48                    $C$DW$6 .dwtag  DW_TAG_subprogram, DW_AT_name("UARTConfigSetExpClk")
      49                            .dwattr $C$DW$6, DW_AT_TI_symbol_name("UARTConfigSetExpClk")
      50                            .dwattr $C$DW$6, DW_AT_declaration
      51                            .dwattr $C$DW$6, DW_AT_external
      52                            .dwattr $C$DW$6, DW_AT_decl_file("C:/TI_CodeComposer/StellarisWare-LM3S1968/driverlib/uart.h")
      53                            .dwattr $C$DW$6, DW_AT_decl_line(0xc6)
      54                            .dwattr $C$DW$6, DW_AT_decl_column(0x0d)
      55                    $C$DW$7 .dwtag  DW_TAG_formal_parameter
TI ARM Assembler PC v5.1.7 Thu Oct 30 20:25:15 2014

Tools Copyright (c) 1996-2014 Texas Instruments Incorporated
uartstdio.asm                                                        PAGE    2

      56                            .dwattr $C$DW$7, DW_AT_type(*$C$DW$T$13)
      57                    $C$DW$8 .dwtag  DW_TAG_formal_parameter
      58                            .dwattr $C$DW$8, DW_AT_type(*$C$DW$T$13)
      59                    $C$DW$9 .dwtag  DW_TAG_formal_parameter
      60                            .dwattr $C$DW$9, DW_AT_type(*$C$DW$T$13)
      61                    $C$DW$10        .dwtag  DW_TAG_formal_parameter
      62                            .dwattr $C$DW$10, DW_AT_type(*$C$DW$T$13)
      63                            .dwendtag $C$DW$6
      64                    
      65                    
      66                    $C$DW$11        .dwtag  DW_TAG_subprogram, DW_AT_name("UARTEnable")
      67                            .dwattr $C$DW$11, DW_AT_TI_symbol_name("UARTEnable")
      68                            .dwattr $C$DW$11, DW_AT_declaration
      69                            .dwattr $C$DW$11, DW_AT_external
      70                            .dwattr $C$DW$11, DW_AT_decl_file("C:/TI_CodeComposer/StellarisWare-LM3S1968/driverlib/uart.h"
      71                            .dwattr $C$DW$11, DW_AT_decl_line(0xcb)
      72                            .dwattr $C$DW$11, DW_AT_decl_column(0x0d)
      73                    $C$DW$12        .dwtag  DW_TAG_formal_parameter
      74                            .dwattr $C$DW$12, DW_AT_type(*$C$DW$T$13)
      75                            .dwendtag $C$DW$11
      76                    
      77                    
      78                    $C$DW$13        .dwtag  DW_TAG_subprogram, DW_AT_name("UARTCharGet")
      79                            .dwattr $C$DW$13, DW_AT_TI_symbol_name("UARTCharGet")
      80                            .dwattr $C$DW$13, DW_AT_type(*$C$DW$T$12)
      81                            .dwattr $C$DW$13, DW_AT_declaration
      82                            .dwattr $C$DW$13, DW_AT_external
      83                            .dwattr $C$DW$13, DW_AT_decl_file("C:/TI_CodeComposer/StellarisWare-LM3S1968/driverlib/uart.h"
      84                            .dwattr $C$DW$13, DW_AT_decl_line(0xd4)
      85                            .dwattr $C$DW$13, DW_AT_decl_column(0x0d)
      86                    $C$DW$14        .dwtag  DW_TAG_formal_parameter
      87                            .dwattr $C$DW$14, DW_AT_type(*$C$DW$T$13)
      88                            .dwendtag $C$DW$13
      89                    
      90                    
      91                    $C$DW$15        .dwtag  DW_TAG_subprogram, DW_AT_name("UARTCharPut")
      92                            .dwattr $C$DW$15, DW_AT_TI_symbol_name("UARTCharPut")
      93                            .dwattr $C$DW$15, DW_AT_declaration
      94                            .dwattr $C$DW$15, DW_AT_external
      95                            .dwattr $C$DW$15, DW_AT_decl_file("C:/TI_CodeComposer/StellarisWare-LM3S1968/driverlib/uart.h"
      96                            .dwattr $C$DW$15, DW_AT_decl_line(0xd7)
      97                            .dwattr $C$DW$15, DW_AT_decl_column(0x0d)
      98                    $C$DW$16        .dwtag  DW_TAG_formal_parameter
      99                            .dwattr $C$DW$16, DW_AT_type(*$C$DW$T$13)
     100                    $C$DW$17        .dwtag  DW_TAG_formal_parameter
     101                            .dwattr $C$DW$17, DW_AT_type(*$C$DW$T$6)
     102                            .dwendtag $C$DW$15
     103                    
     104 00000000                   .data
     105                            .align  4
     106                            .elfsym g_ulBase,SYM_SIZE(4)
     107 00000000           g_ulBase:
     108 00000000 00000000          .bits   0,32                    ; g_ulBase @ 0
     109                    
     110                    $C$DW$18        .dwtag  DW_TAG_variable, DW_AT_name("g_ulBase")
TI ARM Assembler PC v5.1.7 Thu Oct 30 20:25:15 2014

Tools Copyright (c) 1996-2014 Texas Instruments Incorporated
uartstdio.asm                                                        PAGE    3

     111                            .dwattr $C$DW$18, DW_AT_TI_symbol_name("g_ulBase")
     112                            .dwattr $C$DW$18, DW_AT_type(*$C$DW$T$13)
     113                            .dwattr $C$DW$18, DW_AT_location[DW_OP_addr g_ulBase]
     114                            .dwattr $C$DW$18, DW_AT_decl_file("../Drivers/uartstdio.c")
     115                            .dwattr $C$DW$18, DW_AT_decl_line(0x7c)
     116                            .dwattr $C$DW$18, DW_AT_decl_column(0x16)
     117 00000000                   .sect   ".const"
     118                            .align  4
     119                            .elfsym g_pcHex,SYM_SIZE(4)
     120 00000000           g_pcHex:
     121 00000000 00000000!         .bits   $C$SL1,32               ; g_pcHex @ 0
     122                    
     123                    $C$DW$19        .dwtag  DW_TAG_variable, DW_AT_name("g_pcHex")
     124                            .dwattr $C$DW$19, DW_AT_TI_symbol_name("g_pcHex")
     125                            .dwattr $C$DW$19, DW_AT_type(*$C$DW$T$49)
     126                            .dwattr $C$DW$19, DW_AT_location[DW_OP_addr g_pcHex]
     127                            .dwattr $C$DW$19, DW_AT_decl_file("../Drivers/uartstdio.c")
     128                            .dwattr $C$DW$19, DW_AT_decl_line(0x84)
     129                            .dwattr $C$DW$19, DW_AT_decl_column(0x1b)
     130 00000004                   .sect   ".const"
     131                            .align  4
     132                            .elfsym g_ulUARTBase,SYM_SIZE(12)
     133 00000004           g_ulUARTBase:
     134 00000004 4000C000          .bits   1073790976,32                   ; g_ulUARTBase[0] @ 0
     135 00000008 4000D000          .bits   1073795072,32                   ; g_ulUARTBase[1] @ 32
     136 0000000c 4000E000          .bits   1073799168,32                   ; g_ulUARTBase[2] @ 64
     137                    
     138                    $C$DW$20        .dwtag  DW_TAG_variable, DW_AT_name("g_ulUARTBase")
     139                            .dwattr $C$DW$20, DW_AT_TI_symbol_name("g_ulUARTBase")
     140                            .dwattr $C$DW$20, DW_AT_type(*$C$DW$T$46)
     141                            .dwattr $C$DW$20, DW_AT_location[DW_OP_addr g_ulUARTBase]
     142                            .dwattr $C$DW$20, DW_AT_decl_file("../Drivers/uartstdio.c")
     143                            .dwattr $C$DW$20, DW_AT_decl_line(0x8b)
     144                            .dwattr $C$DW$20, DW_AT_decl_column(0x1c)
     145 00000010                   .sect   ".const"
     146                            .align  4
     147                            .elfsym g_ulUARTPeriph,SYM_SIZE(12)
     148 00000010           g_ulUARTPeriph:
     149 00000010 10000001          .bits   268435457,32                    ; g_ulUARTPeriph[0] @ 0
     150 00000014 10000002          .bits   268435458,32                    ; g_ulUARTPeriph[1] @ 32
     151 00000018 10000004          .bits   268435460,32                    ; g_ulUARTPeriph[2] @ 64
     152                    
     153                    $C$DW$21        .dwtag  DW_TAG_variable, DW_AT_name("g_ulUARTPeriph")
     154                            .dwattr $C$DW$21, DW_AT_TI_symbol_name("g_ulUARTPeriph")
     155                            .dwattr $C$DW$21, DW_AT_type(*$C$DW$T$46)
     156                            .dwattr $C$DW$21, DW_AT_location[DW_OP_addr g_ulUARTPeriph]
     157                            .dwattr $C$DW$21, DW_AT_decl_file("../Drivers/uartstdio.c")
     158                            .dwattr $C$DW$21, DW_AT_decl_line(0xa8)
     159                            .dwattr $C$DW$21, DW_AT_decl_column(0x1c)
     160 00000004                   .data
     161                            .align  1
     162                            .elfsym bLastWasCR$1,SYM_SIZE(1)
     163 00000004           bLastWasCR$1:
     164 00000004 00000000          .bits   0,8                     ; bLastWasCR$1 @ 0
     165                    
TI ARM Assembler PC v5.1.7 Thu Oct 30 20:25:15 2014

Tools Copyright (c) 1996-2014 Texas Instruments Incorporated
uartstdio.asm                                                        PAGE    4

     166                    ;       C:\TI_CodeComposer\ccsv6\tools\compiler\arm_5.1.7\bin\armacpia.exe -@C:\\Users\\cratnapa\\AppD
     167 00000000                   .sect   ".text"
     168                            .clink
     169                            .thumbfunc UARTStdioConfig
     170 00000000                   .thumb
     171                            .global UARTStdioConfig
     172                    
     173                    $C$DW$22        .dwtag  DW_TAG_subprogram, DW_AT_name("UARTStdioConfig")
     174                            .dwattr $C$DW$22, DW_AT_low_pc(UARTStdioConfig)
     175                            .dwattr $C$DW$22, DW_AT_high_pc(0x00)
     176                            .dwattr $C$DW$22, DW_AT_TI_symbol_name("UARTStdioConfig")
     177                            .dwattr $C$DW$22, DW_AT_external
     178                            .dwattr $C$DW$22, DW_AT_TI_begin_file("../Drivers/uartstdio.c")
     179                            .dwattr $C$DW$22, DW_AT_TI_begin_line(0x14b)
     180                            .dwattr $C$DW$22, DW_AT_TI_begin_column(0x01)
     181                            .dwattr $C$DW$22, DW_AT_decl_file("../Drivers/uartstdio.c")
     182                            .dwattr $C$DW$22, DW_AT_decl_line(0x14b)
     183                            .dwattr $C$DW$22, DW_AT_decl_column(0x01)
     184                            .dwattr $C$DW$22, DW_AT_TI_max_frame_size(0x10)
     185                            .dwpsn  file "../Drivers/uartstdio.c",line 333,column 1,is_stmt,address UARTStdioConfig,isa 1
     186                    
     187                            .dwfde $C$DW$CIE, UARTStdioConfig
     188                    $C$DW$23        .dwtag  DW_TAG_formal_parameter, DW_AT_name("ulPortNum")
     189                            .dwattr $C$DW$23, DW_AT_TI_symbol_name("ulPortNum")
     190                            .dwattr $C$DW$23, DW_AT_type(*$C$DW$T$13)
     191                            .dwattr $C$DW$23, DW_AT_location[DW_OP_reg0]
     192                    $C$DW$24        .dwtag  DW_TAG_formal_parameter, DW_AT_name("ulBaud")
     193                            .dwattr $C$DW$24, DW_AT_TI_symbol_name("ulBaud")
     194                            .dwattr $C$DW$24, DW_AT_type(*$C$DW$T$13)
     195                            .dwattr $C$DW$24, DW_AT_location[DW_OP_reg1]
     196                    $C$DW$25        .dwtag  DW_TAG_formal_parameter, DW_AT_name("ulSrcClock")
     197                            .dwattr $C$DW$25, DW_AT_TI_symbol_name("ulSrcClock")
     198                            .dwattr $C$DW$25, DW_AT_type(*$C$DW$T$13)
     199                            .dwattr $C$DW$25, DW_AT_location[DW_OP_reg2]
     200                    
     201                    ;*****************************************************************************
     202                    ;* FUNCTION NAME: UARTStdioConfig                                            *
     203                    ;*                                                                           *
     204                    ;*   Regs Modified     : A1,A2,A3,A4,V9,SP,LR,SR                             *
     205                    ;*   Regs Used         : A1,A2,A3,A4,V9,SP,LR,SR                             *
     206                    ;*   Local Frame Size  : 0 Args + 12 Auto + 4 Save = 16 byte                 *
     207                    ;*****************************************************************************
     208 00000000           UARTStdioConfig:
     209                    ;* --------------------------------------------------------------------------*
     210                            .dwcfi  cfa_offset, 0
     211 00000000 B50E              PUSH      {A2, A3, A4, LR}      ; [DPU_3_PIPE]  ; [ORIG 16-BIT INS]
     212                            .dwcfi  cfa_offset, 16
     213                            .dwcfi  save_reg_to_mem, 14, -4
     214                            .dwcfi  save_reg_to_mem, 3, -8
     215                            .dwcfi  save_reg_to_mem, 2, -12
     216                            .dwcfi  save_reg_to_mem, 1, -16
     217                    $C$DW$26        .dwtag  DW_TAG_variable, DW_AT_name("ulPortNum")
     218                            .dwattr $C$DW$26, DW_AT_TI_symbol_name("ulPortNum")
     219                            .dwattr $C$DW$26, DW_AT_type(*$C$DW$T$13)
     220                            .dwattr $C$DW$26, DW_AT_location[DW_OP_breg13 0]
TI ARM Assembler PC v5.1.7 Thu Oct 30 20:25:15 2014

Tools Copyright (c) 1996-2014 Texas Instruments Incorporated
uartstdio.asm                                                        PAGE    5

     221                    $C$DW$27        .dwtag  DW_TAG_variable, DW_AT_name("ulBaud")
     222                            .dwattr $C$DW$27, DW_AT_TI_symbol_name("ulBaud")
     223                            .dwattr $C$DW$27, DW_AT_type(*$C$DW$T$13)
     224                            .dwattr $C$DW$27, DW_AT_location[DW_OP_breg13 4]
     225                    $C$DW$28        .dwtag  DW_TAG_variable, DW_AT_name("ulSrcClock")
     226                            .dwattr $C$DW$28, DW_AT_TI_symbol_name("ulSrcClock")
     227                            .dwattr $C$DW$28, DW_AT_type(*$C$DW$T$13)
     228                            .dwattr $C$DW$28, DW_AT_location[DW_OP_breg13 8]
     229 00000002 9202              STR       A3, [SP, #8]          ; [DPU_3_PIPE] |333|  ; [ORIG 16-BIT INS]
     230 00000004 9101              STR       A2, [SP, #4]          ; [DPU_3_PIPE] |333|  ; [ORIG 16-BIT INS]
     231 00000006 9000              STR       A1, [SP, #0]          ; [DPU_3_PIPE] |333|  ; [ORIG 16-BIT INS]
     232                            .dwpsn  file "../Drivers/uartstdio.c",line 350,column 5,is_stmt,isa 1
     233 00000008 495F              LDR       A2, $C$CON1           ; [DPU_3_PIPE] |350|  ; [ORIG 16-BIT INS]
     234 0000000a 9800              LDR       A1, [SP, #0]          ; [DPU_3_PIPE] |350|  ; [ORIG 16-BIT INS]
     235 0000000c 0020F851          LDR       A1, [A2, +A1, LSL #2] ; [DPU_3_PIPE] |350|  ; [KEEP 32-BIT INS]
     236                    $C$DW$29        .dwtag  DW_TAG_TI_branch
     237                            .dwattr $C$DW$29, DW_AT_low_pc(0x00)
     238                            .dwattr $C$DW$29, DW_AT_name("SysCtlPeripheralPresent")
     239                            .dwattr $C$DW$29, DW_AT_TI_call
     240 00000010 FFFEF7FF!         BL        SysCtlPeripheralPresent ; [DPU_3_PIPE] |350|  ; [KEEP 32-BIT INS]
     241                            ; CALL OCCURS {SysCtlPeripheralPresent }  ; [] |350| 
     242 00000014 B1B0              CBZ       A1, ||$C$L1||         ; []  ; [ORIG 16-BIT INS]
     243                            ; BRANCHCC OCCURS {||$C$L1||}    ; [] |350| 
     244                    ;* --------------------------------------------------------------------------*
     245                            .dwpsn  file "../Drivers/uartstdio.c",line 352,column 9,is_stmt,isa 1
     246                            .dwpsn  file "../Drivers/uartstdio.c",line 358,column 5,is_stmt,isa 1
     247 00000016 9800              LDR       A1, [SP, #0]          ; [DPU_3_PIPE] |358|  ; [ORIG 16-BIT INS]
     248 00000018 4A5D              LDR       A3, $C$CON3           ; [DPU_3_PIPE] |358|  ; [ORIG 16-BIT INS]
     249 0000001a 495C              LDR       A2, $C$CON2           ; [DPU_3_PIPE] |358|  ; [ORIG 16-BIT INS]
     250 0000001c 0020F852          LDR       A1, [A3, +A1, LSL #2] ; [DPU_3_PIPE] |358|  ; [KEEP 32-BIT INS]
     251 00000020 6008              STR       A1, [A2, #0]          ; [DPU_3_PIPE] |358|  ; [ORIG 16-BIT INS]
     252                            .dwpsn  file "../Drivers/uartstdio.c",line 363,column 5,is_stmt,isa 1
     253 00000022 9800              LDR       A1, [SP, #0]          ; [DPU_3_PIPE] |363|  ; [ORIG 16-BIT INS]
     254 00000024 4958              LDR       A2, $C$CON1           ; [DPU_3_PIPE] |363|  ; [ORIG 16-BIT INS]
     255 00000026 0020F851          LDR       A1, [A2, +A1, LSL #2] ; [DPU_3_PIPE] |363|  ; [KEEP 32-BIT INS]
     256                    $C$DW$30        .dwtag  DW_TAG_TI_branch
     257                            .dwattr $C$DW$30, DW_AT_low_pc(0x00)
     258                            .dwattr $C$DW$30, DW_AT_name("SysCtlPeripheralEnable")
     259                            .dwattr $C$DW$30, DW_AT_TI_call
     260 0000002a FFFEF7FF!         BL        SysCtlPeripheralEnable ; [DPU_3_PIPE] |363|  ; [KEEP 32-BIT INS]
     261                            ; CALL OCCURS {SysCtlPeripheralEnable }  ; [] |363| 
     262                            .dwpsn  file "../Drivers/uartstdio.c",line 368,column 5,is_stmt,isa 1
     263 0000002e 4857              LDR       A1, $C$CON2           ; [DPU_3_PIPE] |368|  ; [ORIG 16-BIT INS]
     264 00000030 9902              LDR       A2, [SP, #8]          ; [DPU_3_PIPE] |368|  ; [ORIG 16-BIT INS]
     265 00000032 9A01              LDR       A3, [SP, #4]          ; [DPU_3_PIPE] |368|  ; [ORIG 16-BIT INS]
     266 00000034 6800              LDR       A1, [A1, #0]          ; [DPU_3_PIPE] |368|  ; [ORIG 16-BIT INS]
     267 00000036 2360              MOVS      A4, #96               ; [DPU_3_PIPE] |368|  ; [ORIG 16-BIT INS]
     268                    $C$DW$31        .dwtag  DW_TAG_TI_branch
     269                            .dwattr $C$DW$31, DW_AT_low_pc(0x00)
     270                            .dwattr $C$DW$31, DW_AT_name("UARTConfigSetExpClk")
     271                            .dwattr $C$DW$31, DW_AT_TI_call
     272 00000038 FFFEF7FF!         BL        UARTConfigSetExpClk   ; [DPU_3_PIPE] |368|  ; [KEEP 32-BIT INS]
     273                            ; CALL OCCURS {UARTConfigSetExpClk }  ; [] |368| 
     274                            .dwpsn  file "../Drivers/uartstdio.c",line 404,column 5,is_stmt,isa 1
     275 0000003c 4853              LDR       A1, $C$CON2           ; [DPU_3_PIPE] |404|  ; [ORIG 16-BIT INS]
TI ARM Assembler PC v5.1.7 Thu Oct 30 20:25:15 2014

Tools Copyright (c) 1996-2014 Texas Instruments Incorporated
uartstdio.asm                                                        PAGE    6

     276 0000003e 6800              LDR       A1, [A1, #0]          ; [DPU_3_PIPE] |404|  ; [ORIG 16-BIT INS]
     277                    $C$DW$32        .dwtag  DW_TAG_TI_branch
     278                            .dwattr $C$DW$32, DW_AT_low_pc(0x00)
     279                            .dwattr $C$DW$32, DW_AT_name("UARTEnable")
     280                            .dwattr $C$DW$32, DW_AT_TI_call
     281 00000040 FFFEF7FF!         BL        UARTEnable            ; [DPU_3_PIPE] |404|  ; [KEEP 32-BIT INS]
     282                            ; CALL OCCURS {UARTEnable }      ; [] |404| 
     283                            .dwpsn  file "../Drivers/uartstdio.c",line 405,column 1,is_stmt,isa 1
     284                    ;* --------------------------------------------------------------------------*
     285                    ||$C$L1||:    
     286                    $C$DW$33        .dwtag  DW_TAG_TI_branch
     287                            .dwattr $C$DW$33, DW_AT_low_pc(0x00)
     288                            .dwattr $C$DW$33, DW_AT_TI_return
     289 00000044 BD0E              POP       {A2, A3, A4, PC}      ; [DPU_3_PIPE]  ; [ORIG 16-BIT INS]
     290                            .dwcfi  cfa_offset, 0
     291                            ; BRANCH OCCURS                  ; [] 
     292                            .dwattr $C$DW$22, DW_AT_TI_end_file("../Drivers/uartstdio.c")
     293                            .dwattr $C$DW$22, DW_AT_TI_end_line(0x195)
     294                            .dwattr $C$DW$22, DW_AT_TI_end_column(0x01)
     295                            .dwendentry
     296                            .dwendtag $C$DW$22
     297                    
     298 00000046                   .sect   ".text"
     299                            .clink
     300                            .thumbfunc UARTStdioInit
     301 00000046                   .thumb
     302                            .global UARTStdioInit
     303                    
     304                    $C$DW$34        .dwtag  DW_TAG_subprogram, DW_AT_name("UARTStdioInit")
     305                            .dwattr $C$DW$34, DW_AT_low_pc(UARTStdioInit)
     306                            .dwattr $C$DW$34, DW_AT_high_pc(0x00)
     307                            .dwattr $C$DW$34, DW_AT_TI_symbol_name("UARTStdioInit")
     308                            .dwattr $C$DW$34, DW_AT_external
     309                            .dwattr $C$DW$34, DW_AT_TI_begin_file("../Drivers/uartstdio.c")
     310                            .dwattr $C$DW$34, DW_AT_TI_begin_line(0x1af)
     311                            .dwattr $C$DW$34, DW_AT_TI_begin_column(0x01)
     312                            .dwattr $C$DW$34, DW_AT_decl_file("../Drivers/uartstdio.c")
     313                            .dwattr $C$DW$34, DW_AT_decl_line(0x1af)
     314                            .dwattr $C$DW$34, DW_AT_decl_column(0x01)
     315                            .dwattr $C$DW$34, DW_AT_TI_max_frame_size(0x08)
     316                            .dwpsn  file "../Drivers/uartstdio.c",line 432,column 1,is_stmt,address UARTStdioInit,isa 1
     317                    
     318                            .dwfde $C$DW$CIE, UARTStdioInit
     319                    $C$DW$35        .dwtag  DW_TAG_formal_parameter, DW_AT_name("ulPortNum")
     320                            .dwattr $C$DW$35, DW_AT_TI_symbol_name("ulPortNum")
     321                            .dwattr $C$DW$35, DW_AT_type(*$C$DW$T$13)
     322                            .dwattr $C$DW$35, DW_AT_location[DW_OP_reg0]
     323                    
     324                    ;*****************************************************************************
     325                    ;* FUNCTION NAME: UARTStdioInit                                              *
     326                    ;*                                                                           *
     327                    ;*   Regs Modified     : A1,A2,A3,A4,V9,SP,LR,SR                             *
     328                    ;*   Regs Used         : A1,A2,A3,A4,V9,SP,LR,SR                             *
     329                    ;*   Local Frame Size  : 0 Args + 4 Auto + 4 Save = 8 byte                   *
     330                    ;*****************************************************************************
TI ARM Assembler PC v5.1.7 Thu Oct 30 20:25:15 2014

Tools Copyright (c) 1996-2014 Texas Instruments Incorporated
uartstdio.asm                                                        PAGE    7

     331 00000046           UARTStdioInit:
     332                    ;* --------------------------------------------------------------------------*
     333                            .dwcfi  cfa_offset, 0
     334 00000046 B508              PUSH      {A4, LR}              ; [DPU_3_PIPE]  ; [ORIG 16-BIT INS]
     335                            .dwcfi  cfa_offset, 8
     336                            .dwcfi  save_reg_to_mem, 14, -4
     337                            .dwcfi  save_reg_to_mem, 3, -8
     338                    $C$DW$36        .dwtag  DW_TAG_variable, DW_AT_name("ulPortNum")
     339                            .dwattr $C$DW$36, DW_AT_TI_symbol_name("ulPortNum")
     340                            .dwattr $C$DW$36, DW_AT_type(*$C$DW$T$13)
     341                            .dwattr $C$DW$36, DW_AT_location[DW_OP_breg13 0]
     342 00000048 9000              STR       A1, [SP, #0]          ; [DPU_3_PIPE] |432|  ; [ORIG 16-BIT INS]
     343                            .dwpsn  file "../Drivers/uartstdio.c",line 437,column 5,is_stmt,isa 1
     344                    $C$DW$37        .dwtag  DW_TAG_TI_branch
     345                            .dwattr $C$DW$37, DW_AT_low_pc(0x00)
     346                            .dwattr $C$DW$37, DW_AT_name("SysCtlClockGet")
     347                            .dwattr $C$DW$37, DW_AT_TI_call
     348 0000004a FFFEF7FF!         BL        SysCtlClockGet        ; [DPU_3_PIPE] |437|  ; [KEEP 32-BIT INS]
     349                            ; CALL OCCURS {SysCtlClockGet }  ; [] |437| 
     350 0000004e 4602              MOV       A3, A1                ; [DPU_3_PIPE] |437|  ; [ORIG 16-BIT INS]
     351 00000050 9800              LDR       A1, [SP, #0]          ; [DPU_3_PIPE] |437|  ; [ORIG 16-BIT INS]
     352 00000052 31E1F44F          MOV       A2, #115200           ; [DPU_3_PIPE] |437|  ; [KEEP 32-BIT INS]
     353                    $C$DW$38        .dwtag  DW_TAG_TI_branch
     354                            .dwattr $C$DW$38, DW_AT_low_pc(0x00)
     355                            .dwattr $C$DW$38, DW_AT_name("UARTStdioConfig")
     356                            .dwattr $C$DW$38, DW_AT_TI_call
     357 00000056 FFD3F7FF          BL        UARTStdioConfig       ; [DPU_3_PIPE] |437|  ; [KEEP 32-BIT INS]
     358                            ; CALL OCCURS {UARTStdioConfig }  ; [] |437| 
     359                            .dwpsn  file "../Drivers/uartstdio.c",line 438,column 1,is_stmt,isa 1
     360                    $C$DW$39        .dwtag  DW_TAG_TI_branch
     361                            .dwattr $C$DW$39, DW_AT_low_pc(0x00)
     362                            .dwattr $C$DW$39, DW_AT_TI_return
     363 0000005a BD08              POP       {A4, PC}              ; [DPU_3_PIPE]  ; [ORIG 16-BIT INS]
     364                            .dwcfi  cfa_offset, 0
     365                            ; BRANCH OCCURS                  ; [] 
     366                            .dwattr $C$DW$34, DW_AT_TI_end_file("../Drivers/uartstdio.c")
     367                            .dwattr $C$DW$34, DW_AT_TI_end_line(0x1b6)
     368                            .dwattr $C$DW$34, DW_AT_TI_end_column(0x01)
     369                            .dwendentry
     370                            .dwendtag $C$DW$34
     371                    
     372 0000005c                   .sect   ".text"
     373                            .clink
     374                            .thumbfunc UARTStdioInitExpClk
     375 0000005c                   .thumb
     376                            .global UARTStdioInitExpClk
     377                    
     378                    $C$DW$40        .dwtag  DW_TAG_subprogram, DW_AT_name("UARTStdioInitExpClk")
     379                            .dwattr $C$DW$40, DW_AT_low_pc(UARTStdioInitExpClk)
     380                            .dwattr $C$DW$40, DW_AT_high_pc(0x00)
     381                            .dwattr $C$DW$40, DW_AT_TI_symbol_name("UARTStdioInitExpClk")
     382                            .dwattr $C$DW$40, DW_AT_external
     383                            .dwattr $C$DW$40, DW_AT_TI_begin_file("../Drivers/uartstdio.c")
     384                            .dwattr $C$DW$40, DW_AT_TI_begin_line(0x1d2)
     385                            .dwattr $C$DW$40, DW_AT_TI_begin_column(0x01)
TI ARM Assembler PC v5.1.7 Thu Oct 30 20:25:15 2014

Tools Copyright (c) 1996-2014 Texas Instruments Incorporated
uartstdio.asm                                                        PAGE    8

     386                            .dwattr $C$DW$40, DW_AT_decl_file("../Drivers/uartstdio.c")
     387                            .dwattr $C$DW$40, DW_AT_decl_line(0x1d2)
     388                            .dwattr $C$DW$40, DW_AT_decl_column(0x01)
     389                            .dwattr $C$DW$40, DW_AT_TI_max_frame_size(0x10)
     390                            .dwpsn  file "../Drivers/uartstdio.c",line 467,column 1,is_stmt,address UARTStdioInitExpClk,is
     391                    
     392                            .dwfde $C$DW$CIE, UARTStdioInitExpClk
     393                    $C$DW$41        .dwtag  DW_TAG_formal_parameter, DW_AT_name("ulPortNum")
     394                            .dwattr $C$DW$41, DW_AT_TI_symbol_name("ulPortNum")
     395                            .dwattr $C$DW$41, DW_AT_type(*$C$DW$T$13)
     396                            .dwattr $C$DW$41, DW_AT_location[DW_OP_reg0]
     397                    $C$DW$42        .dwtag  DW_TAG_formal_parameter, DW_AT_name("ulBaud")
     398                            .dwattr $C$DW$42, DW_AT_TI_symbol_name("ulBaud")
     399                            .dwattr $C$DW$42, DW_AT_type(*$C$DW$T$13)
     400                            .dwattr $C$DW$42, DW_AT_location[DW_OP_reg1]
     401                    
     402                    ;*****************************************************************************
     403                    ;* FUNCTION NAME: UARTStdioInitExpClk                                        *
     404                    ;*                                                                           *
     405                    ;*   Regs Modified     : A1,A2,A3,A4,V9,SP,LR,SR                             *
     406                    ;*   Regs Used         : A1,A2,A3,A4,V9,SP,LR,SR                             *
     407                    ;*   Local Frame Size  : 0 Args + 8 Auto + 4 Save = 12 byte                  *
     408                    ;*****************************************************************************
     409 0000005c           UARTStdioInitExpClk:
     410                    ;* --------------------------------------------------------------------------*
     411                            .dwcfi  cfa_offset, 0
     412 0000005c B50E              PUSH      {A2, A3, A4, LR}      ; [DPU_3_PIPE]  ; [ORIG 16-BIT INS]
     413                            .dwcfi  cfa_offset, 16
     414                            .dwcfi  save_reg_to_mem, 14, -4
     415                            .dwcfi  save_reg_to_mem, 3, -8
     416                            .dwcfi  save_reg_to_mem, 2, -12
     417                            .dwcfi  save_reg_to_mem, 1, -16
     418                    $C$DW$43        .dwtag  DW_TAG_variable, DW_AT_name("ulPortNum")
     419                            .dwattr $C$DW$43, DW_AT_TI_symbol_name("ulPortNum")
     420                            .dwattr $C$DW$43, DW_AT_type(*$C$DW$T$13)
     421                            .dwattr $C$DW$43, DW_AT_location[DW_OP_breg13 0]
     422                    $C$DW$44        .dwtag  DW_TAG_variable, DW_AT_name("ulBaud")
     423                            .dwattr $C$DW$44, DW_AT_TI_symbol_name("ulBaud")
     424                            .dwattr $C$DW$44, DW_AT_type(*$C$DW$T$13)
     425                            .dwattr $C$DW$44, DW_AT_location[DW_OP_breg13 4]
     426 0000005e 9101              STR       A2, [SP, #4]          ; [DPU_3_PIPE] |467|  ; [ORIG 16-BIT INS]
     427 00000060 9000              STR       A1, [SP, #0]          ; [DPU_3_PIPE] |467|  ; [ORIG 16-BIT INS]
     428                            .dwpsn  file "../Drivers/uartstdio.c",line 468,column 5,is_stmt,isa 1
     429                    $C$DW$45        .dwtag  DW_TAG_TI_branch
     430                            .dwattr $C$DW$45, DW_AT_low_pc(0x00)
     431                            .dwattr $C$DW$45, DW_AT_name("SysCtlClockGet")
     432                            .dwattr $C$DW$45, DW_AT_TI_call
     433 00000062 FFFEF7FF!         BL        SysCtlClockGet        ; [DPU_3_PIPE] |468|  ; [KEEP 32-BIT INS]
     434                            ; CALL OCCURS {SysCtlClockGet }  ; [] |468| 
     435 00000066 4602              MOV       A3, A1                ; [DPU_3_PIPE] |468|  ; [ORIG 16-BIT INS]
     436 00000068 9901              LDR       A2, [SP, #4]          ; [DPU_3_PIPE] |468|  ; [ORIG 16-BIT INS]
     437 0000006a 9800              LDR       A1, [SP, #0]          ; [DPU_3_PIPE] |468|  ; [ORIG 16-BIT INS]
     438                    $C$DW$46        .dwtag  DW_TAG_TI_branch
     439                            .dwattr $C$DW$46, DW_AT_low_pc(0x00)
     440                            .dwattr $C$DW$46, DW_AT_name("UARTStdioConfig")
TI ARM Assembler PC v5.1.7 Thu Oct 30 20:25:15 2014

Tools Copyright (c) 1996-2014 Texas Instruments Incorporated
uartstdio.asm                                                        PAGE    9

     441                            .dwattr $C$DW$46, DW_AT_TI_call
     442 0000006c FFC8F7FF          BL        UARTStdioConfig       ; [DPU_3_PIPE] |468|  ; [KEEP 32-BIT INS]
     443                            ; CALL OCCURS {UARTStdioConfig }  ; [] |468| 
     444                            .dwpsn  file "../Drivers/uartstdio.c",line 469,column 1,is_stmt,isa 1
     445                    $C$DW$47        .dwtag  DW_TAG_TI_branch
     446                            .dwattr $C$DW$47, DW_AT_low_pc(0x00)
     447                            .dwattr $C$DW$47, DW_AT_TI_return
     448 00000070 BD0E              POP       {A2, A3, A4, PC}      ; [DPU_3_PIPE]  ; [ORIG 16-BIT INS]
     449                            .dwcfi  cfa_offset, 0
     450                            ; BRANCH OCCURS                  ; [] 
     451                            .dwattr $C$DW$40, DW_AT_TI_end_file("../Drivers/uartstdio.c")
     452                            .dwattr $C$DW$40, DW_AT_TI_end_line(0x1d5)
     453                            .dwattr $C$DW$40, DW_AT_TI_end_column(0x01)
     454                            .dwendentry
     455                            .dwendtag $C$DW$40
     456                    
     457 00000072                   .sect   ".text"
     458                            .clink
     459                            .thumbfunc UARTwrite
     460 00000072                   .thumb
     461                            .global UARTwrite
     462                    
     463                    $C$DW$48        .dwtag  DW_TAG_subprogram, DW_AT_name("UARTwrite")
     464                            .dwattr $C$DW$48, DW_AT_low_pc(UARTwrite)
     465                            .dwattr $C$DW$48, DW_AT_high_pc(0x00)
     466                            .dwattr $C$DW$48, DW_AT_TI_symbol_name("UARTwrite")
     467                            .dwattr $C$DW$48, DW_AT_external
     468                            .dwattr $C$DW$48, DW_AT_type(*$C$DW$T$10)
     469                            .dwattr $C$DW$48, DW_AT_TI_begin_file("../Drivers/uartstdio.c")
     470                            .dwattr $C$DW$48, DW_AT_TI_begin_line(0x1f2)
     471                            .dwattr $C$DW$48, DW_AT_TI_begin_column(0x01)
     472                            .dwattr $C$DW$48, DW_AT_decl_file("../Drivers/uartstdio.c")
     473                            .dwattr $C$DW$48, DW_AT_decl_line(0x1f2)
     474                            .dwattr $C$DW$48, DW_AT_decl_column(0x01)
     475                            .dwattr $C$DW$48, DW_AT_TI_max_frame_size(0x10)
     476                            .dwpsn  file "../Drivers/uartstdio.c",line 499,column 1,is_stmt,address UARTwrite,isa 1
     477                    
     478                            .dwfde $C$DW$CIE, UARTwrite
     479                    $C$DW$49        .dwtag  DW_TAG_formal_parameter, DW_AT_name("pcBuf")
     480                            .dwattr $C$DW$49, DW_AT_TI_symbol_name("pcBuf")
     481                            .dwattr $C$DW$49, DW_AT_type(*$C$DW$T$31)
     482                            .dwattr $C$DW$49, DW_AT_location[DW_OP_reg0]
     483                    $C$DW$50        .dwtag  DW_TAG_formal_parameter, DW_AT_name("ulLen")
     484                            .dwattr $C$DW$50, DW_AT_TI_symbol_name("ulLen")
     485                            .dwattr $C$DW$50, DW_AT_type(*$C$DW$T$13)
     486                            .dwattr $C$DW$50, DW_AT_location[DW_OP_reg1]
     487                    
     488                    ;*****************************************************************************
     489                    ;* FUNCTION NAME: UARTwrite                                                  *
     490                    ;*                                                                           *
     491                    ;*   Regs Modified     : A1,A2,A3,A4,V9,SP,LR,SR                             *
     492                    ;*   Regs Used         : A1,A2,A3,A4,V9,SP,LR,SR                             *
     493                    ;*   Local Frame Size  : 0 Args + 12 Auto + 4 Save = 16 byte                 *
     494                    ;*****************************************************************************
     495 00000072           UARTwrite:
TI ARM Assembler PC v5.1.7 Thu Oct 30 20:25:15 2014

Tools Copyright (c) 1996-2014 Texas Instruments Incorporated
uartstdio.asm                                                        PAGE   10

     496                    ;* --------------------------------------------------------------------------*
     497                            .dwcfi  cfa_offset, 0
     498 00000072 B50E              PUSH      {A2, A3, A4, LR}      ; [DPU_3_PIPE]  ; [ORIG 16-BIT INS]
     499                            .dwcfi  cfa_offset, 16
     500                            .dwcfi  save_reg_to_mem, 14, -4
     501                            .dwcfi  save_reg_to_mem, 3, -8
     502                            .dwcfi  save_reg_to_mem, 2, -12
     503                            .dwcfi  save_reg_to_mem, 1, -16
     504                    $C$DW$51        .dwtag  DW_TAG_variable, DW_AT_name("pcBuf")
     505                            .dwattr $C$DW$51, DW_AT_TI_symbol_name("pcBuf")
     506                            .dwattr $C$DW$51, DW_AT_type(*$C$DW$T$31)
     507                            .dwattr $C$DW$51, DW_AT_location[DW_OP_breg13 0]
     508                    $C$DW$52        .dwtag  DW_TAG_variable, DW_AT_name("ulLen")
     509                            .dwattr $C$DW$52, DW_AT_TI_symbol_name("ulLen")
     510                            .dwattr $C$DW$52, DW_AT_type(*$C$DW$T$13)
     511                            .dwattr $C$DW$52, DW_AT_location[DW_OP_breg13 4]
     512                    $C$DW$53        .dwtag  DW_TAG_variable, DW_AT_name("uIdx")
     513                            .dwattr $C$DW$53, DW_AT_TI_symbol_name("uIdx")
     514                            .dwattr $C$DW$53, DW_AT_type(*$C$DW$T$11)
     515                            .dwattr $C$DW$53, DW_AT_location[DW_OP_breg13 8]
     516 00000074 9101              STR       A2, [SP, #4]          ; [DPU_3_PIPE] |499|  ; [ORIG 16-BIT INS]
     517 00000076 9000              STR       A1, [SP, #0]          ; [DPU_3_PIPE] |499|  ; [ORIG 16-BIT INS]
     518                            .dwpsn  file "../Drivers/uartstdio.c",line 577,column 9,is_stmt,isa 1
     519 00000078 2000              MOVS      A1, #0                ; [DPU_3_PIPE] |577|  ; [ORIG 16-BIT INS]
     520 0000007a 9002              STR       A1, [SP, #8]          ; [DPU_3_PIPE] |577|  ; [ORIG 16-BIT INS]
     521                            .dwpsn  file "../Drivers/uartstdio.c",line 577,column 19,is_stmt,isa 1
     522 0000007c 9801              LDR       A1, [SP, #4]          ; [DPU_3_PIPE] |577|  ; [ORIG 16-BIT INS]
     523 0000007e 9902              LDR       A2, [SP, #8]          ; [DPU_3_PIPE] |577|  ; [ORIG 16-BIT INS]
     524 00000080 4288              CMP       A1, A2                ; [DPU_3_PIPE] |577|  ; [ORIG 16-BIT INS]
     525 00000082 D917              BLS       ||$C$L4||             ; [DPU_3_PIPE] |577|  ; [ORIG 16-BIT INS]
     526                            ; BRANCHCC OCCURS {||$C$L4||}    ; [] |577| 
     527                    ;* --------------------------------------------------------------------------*
     528                    ;*   BEGIN LOOP ||$C$L2||
     529                    ;*
     530                    ;*   Loop source line                : 577
     531                    ;*   Loop closing brace source line  : 592
     532                    ;*   Known Minimum Trip Count        : 1
     533                    ;*   Known Maximum Trip Count        : 4294967295
     534                    ;*   Known Max Trip Count Factor     : 1
     535                    ;* --------------------------------------------------------------------------*
     536 00000084           ||$C$L2||:    
     537                            .dwpsn  file "../Drivers/uartstdio.c",line 583,column 9,is_stmt,isa 1
     538 00000084 9800              LDR       A1, [SP, #0]          ; [DPU_3_PIPE] |583|  ; [ORIG 16-BIT INS]
     539 00000086 9902              LDR       A2, [SP, #8]          ; [DPU_3_PIPE] |583|  ; [ORIG 16-BIT INS]
     540 00000088 5C08              LDRB      A1, [A2, +A1]         ; [DPU_3_PIPE] |583|  ; [ORIG 16-BIT INS]
     541 0000008a 280A              CMP       A1, #10               ; [DPU_3_PIPE] |583|  ; [ORIG 16-BIT INS]
     542 0000008c D104              BNE       ||$C$L3||             ; [DPU_3_PIPE] |583|  ; [ORIG 16-BIT INS]
     543                            ; BRANCHCC OCCURS {||$C$L3||}    ; [] |583| 
     544                    ;* --------------------------------------------------------------------------*
     545                            .dwpsn  file "../Drivers/uartstdio.c",line 585,column 13,is_stmt,isa 1
     546 0000008e 483F              LDR       A1, $C$CON2           ; [DPU_3_PIPE] |585|  ; [ORIG 16-BIT INS]
     547 00000090 6800              LDR       A1, [A1, #0]          ; [DPU_3_PIPE] |585|  ; [ORIG 16-BIT INS]
     548 00000092 210D              MOVS      A2, #13               ; [DPU_3_PIPE] |585|  ; [ORIG 16-BIT INS]
     549                    $C$DW$54        .dwtag  DW_TAG_TI_branch
     550                            .dwattr $C$DW$54, DW_AT_low_pc(0x00)
TI ARM Assembler PC v5.1.7 Thu Oct 30 20:25:15 2014

Tools Copyright (c) 1996-2014 Texas Instruments Incorporated
uartstdio.asm                                                        PAGE   11

     551                            .dwattr $C$DW$54, DW_AT_name("UARTCharPut")
     552                            .dwattr $C$DW$54, DW_AT_TI_call
     553 00000094 FFFEF7FF!         BL        UARTCharPut           ; [DPU_3_PIPE] |585|  ; [KEEP 32-BIT INS]
     554                            ; CALL OCCURS {UARTCharPut }     ; [] |585| 
     555                    ;* --------------------------------------------------------------------------*
     556 00000098           ||$C$L3||:    
     557                            .dwpsn  file "../Drivers/uartstdio.c",line 591,column 9,is_stmt,isa 1
     558 00000098 9800              LDR       A1, [SP, #0]          ; [DPU_3_PIPE] |591|  ; [ORIG 16-BIT INS]
     559 0000009a 9902              LDR       A2, [SP, #8]          ; [DPU_3_PIPE] |591|  ; [ORIG 16-BIT INS]
     560 0000009c 4A3B              LDR       A3, $C$CON2           ; [DPU_3_PIPE] |591|  ; [ORIG 16-BIT INS]
     561 0000009e 5C09              LDRB      A2, [A2, +A1]         ; [DPU_3_PIPE] |591|  ; [ORIG 16-BIT INS]
     562 000000a0 6810              LDR       A1, [A3, #0]          ; [DPU_3_PIPE] |591|  ; [ORIG 16-BIT INS]
     563                    $C$DW$55        .dwtag  DW_TAG_TI_branch
     564                            .dwattr $C$DW$55, DW_AT_low_pc(0x00)
     565                            .dwattr $C$DW$55, DW_AT_name("UARTCharPut")
     566                            .dwattr $C$DW$55, DW_AT_TI_call
     567 000000a2 FFFEF7FF!         BL        UARTCharPut           ; [DPU_3_PIPE] |591|  ; [KEEP 32-BIT INS]
     568                            ; CALL OCCURS {UARTCharPut }     ; [] |591| 
     569                            .dwpsn  file "../Drivers/uartstdio.c",line 577,column 33,is_stmt,isa 1
     570 000000a6 9802              LDR       A1, [SP, #8]          ; [DPU_3_PIPE] |577|  ; [ORIG 16-BIT INS]
     571 000000a8 1C40              ADDS      A1, A1, #1            ; [DPU_3_PIPE] |577|  ; [ORIG 16-BIT INS]
     572 000000aa 9002              STR       A1, [SP, #8]          ; [DPU_3_PIPE] |577|  ; [ORIG 16-BIT INS]
     573                            .dwpsn  file "../Drivers/uartstdio.c",line 577,column 19,is_stmt,isa 1
     574 000000ac 9801              LDR       A1, [SP, #4]          ; [DPU_3_PIPE] |577|  ; [ORIG 16-BIT INS]
     575 000000ae 9902              LDR       A2, [SP, #8]          ; [DPU_3_PIPE] |577|  ; [ORIG 16-BIT INS]
     576 000000b0 4288              CMP       A1, A2                ; [DPU_3_PIPE] |577|  ; [ORIG 16-BIT INS]
     577 000000b2 D8E7              BHI       ||$C$L2||             ; [DPU_3_PIPE] |577|  ; [ORIG 16-BIT INS]
     578                            ; BRANCHCC OCCURS {||$C$L2||}    ; [] |577| 
     579                    ;* --------------------------------------------------------------------------*
     580 000000b4           ||$C$L4||:    
     581                            .dwpsn  file "../Drivers/uartstdio.c",line 597,column 5,is_stmt,isa 1
     582 000000b4 9802              LDR       A1, [SP, #8]          ; [DPU_3_PIPE] |597|  ; [ORIG 16-BIT INS]
     583                            .dwpsn  file "../Drivers/uartstdio.c",line 599,column 1,is_stmt,isa 1
     584                    $C$DW$56        .dwtag  DW_TAG_TI_branch
     585                            .dwattr $C$DW$56, DW_AT_low_pc(0x00)
     586                            .dwattr $C$DW$56, DW_AT_TI_return
     587 000000b6 BD0E              POP       {A2, A3, A4, PC}      ; [DPU_3_PIPE]  ; [ORIG 16-BIT INS]
     588                            .dwcfi  cfa_offset, 0
     589                            ; BRANCH OCCURS                  ; [] 
     590                            .dwattr $C$DW$48, DW_AT_TI_end_file("../Drivers/uartstdio.c")
     591                            .dwattr $C$DW$48, DW_AT_TI_end_line(0x257)
     592                            .dwattr $C$DW$48, DW_AT_TI_end_column(0x01)
     593                            .dwendentry
     594                            .dwendtag $C$DW$48
     595                    
     596 000000b8                   .sect   ".text"
     597                            .clink
     598                            .thumbfunc UARTgets
     599 000000b8                   .thumb
     600                            .global UARTgets
     601                    
     602                    $C$DW$57        .dwtag  DW_TAG_subprogram, DW_AT_name("UARTgets")
     603                            .dwattr $C$DW$57, DW_AT_low_pc(UARTgets)
     604                            .dwattr $C$DW$57, DW_AT_high_pc(0x00)
     605                            .dwattr $C$DW$57, DW_AT_TI_symbol_name("UARTgets")
TI ARM Assembler PC v5.1.7 Thu Oct 30 20:25:15 2014

Tools Copyright (c) 1996-2014 Texas Instruments Incorporated
uartstdio.asm                                                        PAGE   12

     606                            .dwattr $C$DW$57, DW_AT_external
     607                            .dwattr $C$DW$57, DW_AT_type(*$C$DW$T$10)
     608                            .dwattr $C$DW$57, DW_AT_TI_begin_file("../Drivers/uartstdio.c")
     609                            .dwattr $C$DW$57, DW_AT_TI_begin_line(0x277)
     610                            .dwattr $C$DW$57, DW_AT_TI_begin_column(0x01)
     611                            .dwattr $C$DW$57, DW_AT_decl_file("../Drivers/uartstdio.c")
     612                            .dwattr $C$DW$57, DW_AT_decl_line(0x277)
     613                            .dwattr $C$DW$57, DW_AT_decl_column(0x01)
     614                            .dwattr $C$DW$57, DW_AT_TI_max_frame_size(0x18)
     615                            .dwpsn  file "../Drivers/uartstdio.c",line 632,column 1,is_stmt,address UARTgets,isa 1
     616                    
     617                            .dwfde $C$DW$CIE, UARTgets
     618                    $C$DW$58        .dwtag  DW_TAG_variable, DW_AT_name("bLastWasCR")
     619                            .dwattr $C$DW$58, DW_AT_TI_symbol_name("bLastWasCR$1")
     620                            .dwattr $C$DW$58, DW_AT_type(*$C$DW$T$6)
     621                            .dwattr $C$DW$58, DW_AT_location[DW_OP_addr bLastWasCR$1]
     622                    $C$DW$59        .dwtag  DW_TAG_formal_parameter, DW_AT_name("pcBuf")
     623                            .dwattr $C$DW$59, DW_AT_TI_symbol_name("pcBuf")
     624                            .dwattr $C$DW$59, DW_AT_type(*$C$DW$T$39)
     625                            .dwattr $C$DW$59, DW_AT_location[DW_OP_reg0]
     626                    $C$DW$60        .dwtag  DW_TAG_formal_parameter, DW_AT_name("ulLen")
     627                            .dwattr $C$DW$60, DW_AT_TI_symbol_name("ulLen")
     628                            .dwattr $C$DW$60, DW_AT_type(*$C$DW$T$13)
     629                            .dwattr $C$DW$60, DW_AT_location[DW_OP_reg1]
     630                    
     631                    ;*****************************************************************************
     632                    ;* FUNCTION NAME: UARTgets                                                   *
     633                    ;*                                                                           *
     634                    ;*   Regs Modified     : A1,A2,A3,A4,V9,SP,LR,SR                             *
     635                    ;*   Regs Used         : A1,A2,A3,A4,V9,SP,LR,SR                             *
     636                    ;*   Local Frame Size  : 0 Args + 16 Auto + 4 Save = 20 byte                 *
     637                    ;*****************************************************************************
     638 000000b8           UARTgets:
     639                    ;* --------------------------------------------------------------------------*
     640                            .dwcfi  cfa_offset, 0
     641 000000b8 B500              PUSH      {LR}                  ; [DPU_3_PIPE]  ; [ORIG 16-BIT INS]
     642                            .dwcfi  cfa_offset, 4
     643                            .dwcfi  save_reg_to_mem, 14, -4
     644 000000ba 0D14F1AD          SUB       SP, SP, #20           ; [DPU_3_PIPE]  ; [KEEP 32-BIT INS]
     645                            .dwcfi  cfa_offset, 24
     646                    $C$DW$61        .dwtag  DW_TAG_variable, DW_AT_name("pcBuf")
     647                            .dwattr $C$DW$61, DW_AT_TI_symbol_name("pcBuf")
     648                            .dwattr $C$DW$61, DW_AT_type(*$C$DW$T$39)
     649                            .dwattr $C$DW$61, DW_AT_location[DW_OP_breg13 0]
     650                    $C$DW$62        .dwtag  DW_TAG_variable, DW_AT_name("ulLen")
     651                            .dwattr $C$DW$62, DW_AT_TI_symbol_name("ulLen")
     652                            .dwattr $C$DW$62, DW_AT_type(*$C$DW$T$13)
     653                            .dwattr $C$DW$62, DW_AT_location[DW_OP_breg13 4]
     654                    $C$DW$63        .dwtag  DW_TAG_variable, DW_AT_name("ulCount")
     655                            .dwattr $C$DW$63, DW_AT_TI_symbol_name("ulCount")
     656                            .dwattr $C$DW$63, DW_AT_type(*$C$DW$T$13)
     657                            .dwattr $C$DW$63, DW_AT_location[DW_OP_breg13 8]
     658                    $C$DW$64        .dwtag  DW_TAG_variable, DW_AT_name("cChar")
     659                            .dwattr $C$DW$64, DW_AT_TI_symbol_name("cChar")
     660                            .dwattr $C$DW$64, DW_AT_type(*$C$DW$T$6)
TI ARM Assembler PC v5.1.7 Thu Oct 30 20:25:15 2014

Tools Copyright (c) 1996-2014 Texas Instruments Incorporated
uartstdio.asm                                                        PAGE   13

     661                            .dwattr $C$DW$64, DW_AT_location[DW_OP_breg13 12]
     662 000000be 9101              STR       A2, [SP, #4]          ; [DPU_3_PIPE] |632|  ; [ORIG 16-BIT INS]
     663 000000c0 9000              STR       A1, [SP, #0]          ; [DPU_3_PIPE] |632|  ; [ORIG 16-BIT INS]
     664                            .dwpsn  file "../Drivers/uartstdio.c",line 705,column 27,is_stmt,isa 1
     665 000000c2 2000              MOVS      A1, #0                ; [DPU_3_PIPE] |705|  ; [ORIG 16-BIT INS]
     666 000000c4 9002              STR       A1, [SP, #8]          ; [DPU_3_PIPE] |705|  ; [ORIG 16-BIT INS]
     667                            .dwpsn  file "../Drivers/uartstdio.c",line 720,column 5,is_stmt,isa 1
     668 000000c6 9801              LDR       A1, [SP, #4]          ; [DPU_3_PIPE] |720|  ; [ORIG 16-BIT INS]
     669 000000c8 1E40              SUBS      A1, A1, #1            ; [DPU_3_PIPE] |720|  ; [ORIG 16-BIT INS]
     670 000000ca 9001              STR       A1, [SP, #4]          ; [DPU_3_PIPE] |720|  ; [ORIG 16-BIT INS]
     671                            .dwpsn  file "../Drivers/uartstdio.c",line 725,column 11,is_stmt,isa 1
     672                    ;* --------------------------------------------------------------------------*
     673                    ;*   BEGIN LOOP ||$C$L5||
     674                    ;*
     675                    ;*   Loop source line                : 725
     676                    ;*   Loop closing brace source line  : 813
     677                    ;*   Known Minimum Trip Count        : 1
     678                    ;*   Known Maximum Trip Count        : 4294967295
     679                    ;*   Known Max Trip Count Factor     : 1
     680                    ;* --------------------------------------------------------------------------*
     681 000000cc           ||$C$L5||:    
     682                            .dwpsn  file "../Drivers/uartstdio.c",line 730,column 9,is_stmt,isa 1
     683 000000cc 482F              LDR       A1, $C$CON2           ; [DPU_3_PIPE] |730|  ; [ORIG 16-BIT INS]
     684 000000ce 6800              LDR       A1, [A1, #0]          ; [DPU_3_PIPE] |730|  ; [ORIG 16-BIT INS]
     685                    $C$DW$65        .dwtag  DW_TAG_TI_branch
     686                            .dwattr $C$DW$65, DW_AT_low_pc(0x00)
     687                            .dwattr $C$DW$65, DW_AT_name("UARTCharGet")
     688                            .dwattr $C$DW$65, DW_AT_TI_call
     689 000000d0 FFFEF7FF!         BL        UARTCharGet           ; [DPU_3_PIPE] |730|  ; [KEEP 32-BIT INS]
     690                            ; CALL OCCURS {UARTCharGet }     ; [] |730| 
     691 000000d4 000CF88D          STRB      A1, [SP, #12]         ; [DPU_3_PIPE] |730|  ; [KEEP 32-BIT INS]
     692                            .dwpsn  file "../Drivers/uartstdio.c",line 735,column 9,is_stmt,isa 1
     693 000000d8 000CF89D          LDRB      A1, [SP, #12]         ; [DPU_3_PIPE] |735|  ; [KEEP 32-BIT INS]
     694 000000dc 2808              CMP       A1, #8                ; [DPU_3_PIPE] |735|  ; [ORIG 16-BIT INS]
     695 000000de D10A              BNE       ||$C$L6||             ; [DPU_3_PIPE] |735|  ; [ORIG 16-BIT INS]
     696                            ; BRANCHCC OCCURS {||$C$L6||}    ; [] |735| 
     697                    ;* --------------------------------------------------------------------------*
     698                            .dwpsn  file "../Drivers/uartstdio.c",line 741,column 13,is_stmt,isa 1
     699 000000e0 9802              LDR       A1, [SP, #8]          ; [DPU_3_PIPE] |741|  ; [ORIG 16-BIT INS]
     700 000000e2 2800              CMP       A1, #0                ; [DPU_3_PIPE] |741|  ; [ORIG 16-BIT INS]
     701 000000e4 D0F2              BEQ       ||$C$L5||             ; [DPU_3_PIPE] |741|  ; [ORIG 16-BIT INS]
     702                            ; BRANCHCC OCCURS {||$C$L5||}    ; [] |741| 
     703                    ;* --------------------------------------------------------------------------*
     704                            .dwpsn  file "../Drivers/uartstdio.c",line 746,column 17,is_stmt,isa 1
     705 000000e6 A026              ADR       A1, $C$SL2            ; [DPU_3_PIPE] |746|  ; [ORIG 16-BIT INS]
     706 000000e8 2103              MOVS      A2, #3                ; [DPU_3_PIPE] |746|  ; [ORIG 16-BIT INS]
     707                    $C$DW$66        .dwtag  DW_TAG_TI_branch
     708                            .dwattr $C$DW$66, DW_AT_low_pc(0x00)
     709                            .dwattr $C$DW$66, DW_AT_name("UARTwrite")
     710                            .dwattr $C$DW$66, DW_AT_TI_call
     711 000000ea FFC2F7FF          BL        UARTwrite             ; [DPU_3_PIPE] |746|  ; [KEEP 32-BIT INS]
     712                            ; CALL OCCURS {UARTwrite }       ; [] |746| 
     713                            .dwpsn  file "../Drivers/uartstdio.c",line 751,column 17,is_stmt,isa 1
     714 000000ee 9802              LDR       A1, [SP, #8]          ; [DPU_3_PIPE] |751|  ; [ORIG 16-BIT INS]
     715 000000f0 1E40              SUBS      A1, A1, #1            ; [DPU_3_PIPE] |751|  ; [ORIG 16-BIT INS]
TI ARM Assembler PC v5.1.7 Thu Oct 30 20:25:15 2014

Tools Copyright (c) 1996-2014 Texas Instruments Incorporated
uartstdio.asm                                                        PAGE   14

     716 000000f2 9002              STR       A1, [SP, #8]          ; [DPU_3_PIPE] |751|  ; [ORIG 16-BIT INS]
     717                            .dwpsn  file "../Drivers/uartstdio.c",line 757,column 13,is_stmt,isa 1
     718 000000f4 E7EA              B         ||$C$L5||             ; [DPU_3_PIPE] |757|  ; [ORIG 16-BIT INS]
     719                            ; BRANCH OCCURS {||$C$L5||}      ; [] |757| 
     720                    ;* --------------------------------------------------------------------------*
     721 000000f6           ||$C$L6||:    
     722                            .dwpsn  file "../Drivers/uartstdio.c",line 764,column 9,is_stmt,isa 1
     723 000000f6 000CF89D          LDRB      A1, [SP, #12]         ; [DPU_3_PIPE] |764|  ; [KEEP 32-BIT INS]
     724 000000fa 280A              CMP       A1, #10               ; [DPU_3_PIPE] |764|  ; [ORIG 16-BIT INS]
     725 000000fc D106              BNE       ||$C$L7||             ; [DPU_3_PIPE] |764|  ; [ORIG 16-BIT INS]
     726                            ; BRANCHCC OCCURS {||$C$L7||}    ; [] |764| 
     727                    ;* --------------------------------------------------------------------------*
     728 000000fe 4825              LDR       A1, $C$CON4           ; [DPU_3_PIPE] |764|  ; [ORIG 16-BIT INS]
     729 00000100 7800              LDRB      A1, [A1, #0]          ; [DPU_3_PIPE] |764|  ; [ORIG 16-BIT INS]
     730 00000102 B118              CBZ       A1, ||$C$L7||         ; []  ; [ORIG 16-BIT INS]
     731                            ; BRANCHCC OCCURS {||$C$L7||}    ; [] |764| 
     732                    ;* --------------------------------------------------------------------------*
     733                            .dwpsn  file "../Drivers/uartstdio.c",line 766,column 13,is_stmt,isa 1
     734 00000104 4923              LDR       A2, $C$CON4           ; [DPU_3_PIPE] |766|  ; [ORIG 16-BIT INS]
     735 00000106 2000              MOVS      A1, #0                ; [DPU_3_PIPE] |766|  ; [ORIG 16-BIT INS]
     736 00000108 7008              STRB      A1, [A2, #0]          ; [DPU_3_PIPE] |766|  ; [ORIG 16-BIT INS]
     737                            .dwpsn  file "../Drivers/uartstdio.c",line 767,column 13,is_stmt,isa 1
     738 0000010a E7DF              B         ||$C$L5||             ; [DPU_3_PIPE] |767|  ; [ORIG 16-BIT INS]
     739                            ; BRANCH OCCURS {||$C$L5||}      ; [] |767| 
     740                    ;* --------------------------------------------------------------------------*
     741 0000010c           ||$C$L7||:    
     742                            .dwpsn  file "../Drivers/uartstdio.c",line 773,column 9,is_stmt,isa 1
     743 0000010c 000CF89D          LDRB      A1, [SP, #12]         ; [DPU_3_PIPE] |773|  ; [KEEP 32-BIT INS]
     744 00000110 280D              CMP       A1, #13               ; [DPU_3_PIPE] |773|  ; [ORIG 16-BIT INS]
     745 00000112 D007              BEQ       ||$C$L8||             ; [DPU_3_PIPE] |773|  ; [ORIG 16-BIT INS]
     746                            ; BRANCHCC OCCURS {||$C$L8||}    ; [] |773| 
     747                    ;* --------------------------------------------------------------------------*
     748 00000114 000CF89D          LDRB      A1, [SP, #12]         ; [DPU_3_PIPE] |773|  ; [KEEP 32-BIT INS]
     749 00000118 280A              CMP       A1, #10               ; [DPU_3_PIPE] |773|  ; [ORIG 16-BIT INS]
     750 0000011a D003              BEQ       ||$C$L8||             ; [DPU_3_PIPE] |773|  ; [ORIG 16-BIT INS]
     751                            ; BRANCHCC OCCURS {||$C$L8||}    ; [] |773| 
     752                    ;* --------------------------------------------------------------------------*
     753 0000011c 000CF89D          LDRB      A1, [SP, #12]         ; [DPU_3_PIPE] |773|  ; [KEEP 32-BIT INS]
     754 00000120 281B              CMP       A1, #27               ; [DPU_3_PIPE] |773|  ; [ORIG 16-BIT INS]
     755 00000122 D107              BNE       ||$C$L9||             ; [DPU_3_PIPE] |773|  ; [ORIG 16-BIT INS]
     756                            ; BRANCHCC OCCURS {||$C$L9||}    ; [] |773| 
     757                    ;* --------------------------------------------------------------------------*
     758 00000124           ||$C$L8||:    
     759                            .dwpsn  file "../Drivers/uartstdio.c",line 780,column 13,is_stmt,isa 1
     760 00000124 000CF89D          LDRB      A1, [SP, #12]         ; [DPU_3_PIPE] |780|  ; [KEEP 32-BIT INS]
     761 00000128 280D              CMP       A1, #13               ; [DPU_3_PIPE] |780|  ; [ORIG 16-BIT INS]
     762 0000012a D116              BNE       ||$C$L10||            ; [DPU_3_PIPE] |780|  ; [ORIG 16-BIT INS]
     763                            ; BRANCHCC OCCURS {||$C$L10||}   ; [] |780| 
     764                    ;* --------------------------------------------------------------------------*
     765                            .dwpsn  file "../Drivers/uartstdio.c",line 782,column 17,is_stmt,isa 1
     766 0000012c 4919              LDR       A2, $C$CON4           ; [DPU_3_PIPE] |782|  ; [ORIG 16-BIT INS]
     767 0000012e 2001              MOVS      A1, #1                ; [DPU_3_PIPE] |782|  ; [ORIG 16-BIT INS]
     768 00000130 7008              STRB      A1, [A2, #0]          ; [DPU_3_PIPE] |782|  ; [ORIG 16-BIT INS]
     769                            .dwpsn  file "../Drivers/uartstdio.c",line 788,column 13,is_stmt,isa 1
     770 00000132 E012              B         ||$C$L10||            ; [DPU_3_PIPE] |788|  ; [ORIG 16-BIT INS]
TI ARM Assembler PC v5.1.7 Thu Oct 30 20:25:15 2014

Tools Copyright (c) 1996-2014 Texas Instruments Incorporated
uartstdio.asm                                                        PAGE   15

     771                            ; BRANCH OCCURS {||$C$L10||}     ; [] |788| 
     772                    ;* --------------------------------------------------------------------------*
     773 00000134           ||$C$L9||:    
     774                            .dwpsn  file "../Drivers/uartstdio.c",line 796,column 9,is_stmt,isa 1
     775 00000134 9801              LDR       A1, [SP, #4]          ; [DPU_3_PIPE] |796|  ; [ORIG 16-BIT INS]
     776 00000136 9902              LDR       A2, [SP, #8]          ; [DPU_3_PIPE] |796|  ; [ORIG 16-BIT INS]
     777 00000138 4288              CMP       A1, A2                ; [DPU_3_PIPE] |796|  ; [ORIG 16-BIT INS]
     778 0000013a D9C7              BLS       ||$C$L5||             ; [DPU_3_PIPE] |796|  ; [ORIG 16-BIT INS]
     779                            ; BRANCHCC OCCURS {||$C$L5||}    ; [] |796| 
     780                    ;* --------------------------------------------------------------------------*
     781                            .dwpsn  file "../Drivers/uartstdio.c",line 801,column 13,is_stmt,isa 1
     782 0000013c 9900              LDR       A2, [SP, #0]          ; [DPU_3_PIPE] |801|  ; [ORIG 16-BIT INS]
     783 0000013e 9A02              LDR       A3, [SP, #8]          ; [DPU_3_PIPE] |801|  ; [ORIG 16-BIT INS]
     784 00000140 000CF89D          LDRB      A1, [SP, #12]         ; [DPU_3_PIPE] |801|  ; [KEEP 32-BIT INS]
     785 00000144 5450              STRB      A1, [A3, +A2]         ; [DPU_3_PIPE] |801|  ; [ORIG 16-BIT INS]
     786                            .dwpsn  file "../Drivers/uartstdio.c",line 806,column 13,is_stmt,isa 1
     787 00000146 9802              LDR       A1, [SP, #8]          ; [DPU_3_PIPE] |806|  ; [ORIG 16-BIT INS]
     788 00000148 1C40              ADDS      A1, A1, #1            ; [DPU_3_PIPE] |806|  ; [ORIG 16-BIT INS]
     789 0000014a 9002              STR       A1, [SP, #8]          ; [DPU_3_PIPE] |806|  ; [ORIG 16-BIT INS]
     790                            .dwpsn  file "../Drivers/uartstdio.c",line 811,column 13,is_stmt,isa 1
     791 0000014c 480F              LDR       A1, $C$CON2           ; [DPU_3_PIPE] |811|  ; [ORIG 16-BIT INS]
     792 0000014e 100CF89D          LDRB      A2, [SP, #12]         ; [DPU_3_PIPE] |811|  ; [KEEP 32-BIT INS]
     793 00000152 6800              LDR       A1, [A1, #0]          ; [DPU_3_PIPE] |811|  ; [ORIG 16-BIT INS]
     794                    $C$DW$67        .dwtag  DW_TAG_TI_branch
     795                            .dwattr $C$DW$67, DW_AT_low_pc(0x00)
     796                            .dwattr $C$DW$67, DW_AT_name("UARTCharPut")
     797                            .dwattr $C$DW$67, DW_AT_TI_call
     798 00000154 FFFEF7FF!         BL        UARTCharPut           ; [DPU_3_PIPE] |811|  ; [KEEP 32-BIT INS]
     799                            ; CALL OCCURS {UARTCharPut }     ; [] |811| 
     800                            .dwpsn  file "../Drivers/uartstdio.c",line 725,column 11,is_stmt,isa 1
     801 00000158 E7B8              B         ||$C$L5||             ; [DPU_3_PIPE] |725|  ; [ORIG 16-BIT INS]
     802                            ; BRANCH OCCURS {||$C$L5||}      ; [] |725| 
     803                    ;* --------------------------------------------------------------------------*
     804 0000015a           ||$C$L10||:    
     805                            .dwpsn  file "../Drivers/uartstdio.c",line 818,column 5,is_stmt,isa 1
     806 0000015a 9800              LDR       A1, [SP, #0]          ; [DPU_3_PIPE] |818|  ; [ORIG 16-BIT INS]
     807 0000015c 9902              LDR       A2, [SP, #8]          ; [DPU_3_PIPE] |818|  ; [ORIG 16-BIT INS]
     808 0000015e 2200              MOVS      A3, #0                ; [DPU_3_PIPE] |818|  ; [ORIG 16-BIT INS]
     809 00000160 540A              STRB      A3, [A2, +A1]         ; [DPU_3_PIPE] |818|  ; [ORIG 16-BIT INS]
     810                            .dwpsn  file "../Drivers/uartstdio.c",line 823,column 5,is_stmt,isa 1
     811 00000162 A008              ADR       A1, $C$SL3            ; [DPU_3_PIPE] |823|  ; [ORIG 16-BIT INS]
     812 00000164 2102              MOVS      A2, #2                ; [DPU_3_PIPE] |823|  ; [ORIG 16-BIT INS]
     813                    $C$DW$68        .dwtag  DW_TAG_TI_branch
     814                            .dwattr $C$DW$68, DW_AT_low_pc(0x00)
     815                            .dwattr $C$DW$68, DW_AT_name("UARTwrite")
     816                            .dwattr $C$DW$68, DW_AT_TI_call
     817 00000166 FF84F7FF          BL        UARTwrite             ; [DPU_3_PIPE] |823|  ; [KEEP 32-BIT INS]
     818                            ; CALL OCCURS {UARTwrite }       ; [] |823| 
     819                            .dwpsn  file "../Drivers/uartstdio.c",line 828,column 5,is_stmt,isa 1
     820 0000016a 9802              LDR       A1, [SP, #8]          ; [DPU_3_PIPE] |828|  ; [ORIG 16-BIT INS]
     821                            .dwpsn  file "../Drivers/uartstdio.c",line 830,column 1,is_stmt,isa 1
     822 0000016c B005              ADD       SP, SP, #20           ; [DPU_3_PIPE]  ; [ORIG 16-BIT INS]
     823                            .dwcfi  cfa_offset, 4
     824                    $C$DW$69        .dwtag  DW_TAG_TI_branch
     825                            .dwattr $C$DW$69, DW_AT_low_pc(0x00)
TI ARM Assembler PC v5.1.7 Thu Oct 30 20:25:15 2014

Tools Copyright (c) 1996-2014 Texas Instruments Incorporated
uartstdio.asm                                                        PAGE   16

     826                            .dwattr $C$DW$69, DW_AT_TI_return
     827 0000016e BD00              POP       {PC}                  ; [DPU_3_PIPE]  ; [ORIG 16-BIT INS]
     828                            .dwcfi  cfa_offset, 0
     829                            ; BRANCH OCCURS                  ; [] 
     830                            .dwattr $C$DW$57, DW_AT_TI_end_file("../Drivers/uartstdio.c")
     831                            .dwattr $C$DW$57, DW_AT_TI_end_line(0x33e)
     832                            .dwattr $C$DW$57, DW_AT_TI_end_column(0x01)
     833                            .dwendentry
     834                            .dwendtag $C$DW$57
     835                    
     836 00000170                   .sect   ".text"
     837                            .clink
     838                            .thumbfunc UARTgetc
     839 00000170                   .thumb
     840                            .global UARTgetc
     841                    
     842                    $C$DW$70        .dwtag  DW_TAG_subprogram, DW_AT_name("UARTgetc")
     843                            .dwattr $C$DW$70, DW_AT_low_pc(UARTgetc)
     844                            .dwattr $C$DW$70, DW_AT_high_pc(0x00)
     845                            .dwattr $C$DW$70, DW_AT_TI_symbol_name("UARTgetc")
     846                            .dwattr $C$DW$70, DW_AT_external
     847                            .dwattr $C$DW$70, DW_AT_type(*$C$DW$T$6)
     848                            .dwattr $C$DW$70, DW_AT_TI_begin_file("../Drivers/uartstdio.c")
     849                            .dwattr $C$DW$70, DW_AT_TI_begin_line(0x350)
     850                            .dwattr $C$DW$70, DW_AT_TI_begin_column(0x01)
     851                            .dwattr $C$DW$70, DW_AT_decl_file("../Drivers/uartstdio.c")
     852                            .dwattr $C$DW$70, DW_AT_decl_line(0x350)
     853                            .dwattr $C$DW$70, DW_AT_decl_column(0x01)
     854                            .dwattr $C$DW$70, DW_AT_TI_max_frame_size(0x08)
     855                            .dwpsn  file "../Drivers/uartstdio.c",line 849,column 1,is_stmt,address UARTgetc,isa 1
     856                    
     857                            .dwfde $C$DW$CIE, UARTgetc
     858                    
     859                    ;*****************************************************************************
     860                    ;* FUNCTION NAME: UARTgetc                                                   *
     861                    ;*                                                                           *
     862                    ;*   Regs Modified     : A1,A2,A3,A4,V9,SP,LR,SR                             *
     863                    ;*   Regs Used         : A1,A2,A3,A4,V9,SP,LR,SR                             *
     864                    ;*   Local Frame Size  : 0 Args + 0 Auto + 4 Save = 4 byte                   *
     865                    ;*****************************************************************************
     866 00000170           UARTgetc:
     867                    ;* --------------------------------------------------------------------------*
     868                            .dwcfi  cfa_offset, 0
     869 00000170 B508              PUSH      {A4, LR}              ; [DPU_3_PIPE]  ; [ORIG 16-BIT INS]
     870                            .dwcfi  cfa_offset, 8
     871                            .dwcfi  save_reg_to_mem, 14, -4
     872                            .dwcfi  save_reg_to_mem, 3, -8
     873                            .dwpsn  file "../Drivers/uartstdio.c",line 879,column 5,is_stmt,isa 1
     874 00000172 4806              LDR       A1, $C$CON2           ; [DPU_3_PIPE] |879|  ; [ORIG 16-BIT INS]
     875 00000174 6800              LDR       A1, [A1, #0]          ; [DPU_3_PIPE] |879|  ; [ORIG 16-BIT INS]
     876                    $C$DW$71        .dwtag  DW_TAG_TI_branch
     877                            .dwattr $C$DW$71, DW_AT_low_pc(0x00)
     878                            .dwattr $C$DW$71, DW_AT_name("UARTCharGet")
     879                            .dwattr $C$DW$71, DW_AT_TI_call
     880 00000176 FFFEF7FF!         BL        UARTCharGet           ; [DPU_3_PIPE] |879|  ; [KEEP 32-BIT INS]
TI ARM Assembler PC v5.1.7 Thu Oct 30 20:25:15 2014

Tools Copyright (c) 1996-2014 Texas Instruments Incorporated
uartstdio.asm                                                        PAGE   17

     881                            ; CALL OCCURS {UARTCharGet }     ; [] |879| 
     882 0000017a B2C0              UXTB      A1, A1                ; [DPU_3_PIPE] |879|  ; [ORIG 16-BIT INS]
     883                            .dwpsn  file "../Drivers/uartstdio.c",line 881,column 1,is_stmt,isa 1
     884                    $C$DW$72        .dwtag  DW_TAG_TI_branch
     885                            .dwattr $C$DW$72, DW_AT_low_pc(0x00)
     886                            .dwattr $C$DW$72, DW_AT_TI_return
     887 0000017c BD08              POP       {A4, PC}              ; [DPU_3_PIPE]  ; [ORIG 16-BIT INS]
     888                            .dwcfi  cfa_offset, 0
     889                            ; BRANCH OCCURS                  ; [] 
     890                            .dwattr $C$DW$70, DW_AT_TI_end_file("../Drivers/uartstdio.c")
     891                            .dwattr $C$DW$70, DW_AT_TI_end_line(0x371)
     892                            .dwattr $C$DW$70, DW_AT_TI_end_column(0x01)
     893                            .dwendentry
     894                            .dwendtag $C$DW$70
     895                    
     896                    ;******************************************************************************
     897                    ;* STRINGS                                                                    *
     898                    ;******************************************************************************
     899 0000017e                   .sect   ".text"
     900                            .align  4
     901 00000180 08        ||$C$SL2||:     .string 8," ",8,0
         00000181 20       
         00000182 08       
         00000183 00       
     902                            .align  4
     903 00000184 0D        ||$C$SL3||:     .string 13,10,0
         00000185 0A       
         00000186 00       
     904                    ;******************************************************************************
     905                    ;* CONSTANT TABLE                                                             *
     906                    ;******************************************************************************
     907 00000187                   .sect   ".text"
     908                            .align  4
     909 00000186 0000C000! ||$C$CON1||:    .bits   g_ulUARTPeriph,32
         0000018a 00000000 
     910                            .align  4
     911 0000018a 00000000! ||$C$CON2||:    .bits   g_ulBase,32
         0000018e 00000000 
     912                            .align  4
     913 0000018e 00000000! ||$C$CON3||:    .bits   g_ulUARTBase,32
         00000192 00000000 
     914                            .align  4
     915 00000192 00000000! ||$C$CON4||:    .bits   bLastWasCR$1,32
         00000196 00000000 
     916 00000198                   .sect   ".text"
     917                            .clink
     918                            .thumbfunc UARTprintf
     919 00000198                   .thumb
     920                            .global UARTprintf
     921                    
     922                    $C$DW$73        .dwtag  DW_TAG_subprogram, DW_AT_name("UARTprintf")
     923                            .dwattr $C$DW$73, DW_AT_low_pc(UARTprintf)
     924                            .dwattr $C$DW$73, DW_AT_high_pc(0x00)
     925                            .dwattr $C$DW$73, DW_AT_TI_symbol_name("UARTprintf")
     926                            .dwattr $C$DW$73, DW_AT_external
TI ARM Assembler PC v5.1.7 Thu Oct 30 20:25:15 2014

Tools Copyright (c) 1996-2014 Texas Instruments Incorporated
uartstdio.asm                                                        PAGE   18

     927                            .dwattr $C$DW$73, DW_AT_TI_begin_file("../Drivers/uartstdio.c")
     928                            .dwattr $C$DW$73, DW_AT_TI_begin_line(0x39a)
     929                            .dwattr $C$DW$73, DW_AT_TI_begin_column(0x01)
     930                            .dwattr $C$DW$73, DW_AT_decl_file("../Drivers/uartstdio.c")
     931                            .dwattr $C$DW$73, DW_AT_decl_line(0x39a)
     932                            .dwattr $C$DW$73, DW_AT_decl_column(0x01)
     933                            .dwattr $C$DW$73, DW_AT_TI_max_frame_size(0x50)
     934                            .dwpsn  file "../Drivers/uartstdio.c",line 923,column 1,is_stmt,address UARTprintf,isa 1
     935                    
     936                            .dwfde $C$DW$CIE, UARTprintf
     937                    $C$DW$74        .dwtag  DW_TAG_formal_parameter, DW_AT_name("pcString")
     938                            .dwattr $C$DW$74, DW_AT_TI_symbol_name("pcString")
     939                            .dwattr $C$DW$74, DW_AT_type(*$C$DW$T$31)
     940                            .dwattr $C$DW$74, DW_AT_location[DW_OP_breg13 64]
     941                    $C$DW$75        .dwtag  DW_TAG_unspecified_parameters
     942                    
     943                    ;*****************************************************************************
     944                    ;* FUNCTION NAME: UARTprintf                                                 *
     945                    ;*                                                                           *
     946                    ;*   Regs Modified     : A1,A2,A3,A4,V4,V9,SP,LR,SR                          *
     947                    ;*   Regs Used         : A1,A2,A3,A4,V4,V9,SP,LR,SR                          *
     948                    ;*   Local Frame Size  : 0 Args + 52 Auto + 8 Save = 60 byte                 *
     949                    ;*****************************************************************************
     950 00000198           UARTprintf:
     951                    ;* --------------------------------------------------------------------------*
     952                            .dwcfi  cfa_offset, 0
     953 00000198 B40F              PUSH      {A1, A2, A3, A4}      ; [DPU_3_PIPE]  ; [ORIG 16-BIT INS]
     954                            .dwcfi  cfa_offset, 16
     955                            .dwcfi  save_reg_to_mem, 3, -4
     956                            .dwcfi  save_reg_to_mem, 2, -8
     957                            .dwcfi  save_reg_to_mem, 1, -12
     958                            .dwcfi  save_reg_to_mem, 0, -16
     959 0000019a B580              PUSH      {V4, LR}              ; [DPU_3_PIPE]  ; [ORIG 16-BIT INS]
     960                            .dwcfi  cfa_offset, 24
     961                            .dwcfi  save_reg_to_mem, 14, -20
     962                            .dwcfi  save_reg_to_mem, 7, -24
     963 0000019c AF02              ADD       V4, SP, #8            ; [DPU_3_PIPE]  ; [ORIG 16-BIT INS]
     964 0000019e 0D38F1AD          SUB       SP, SP, #56           ; [DPU_3_PIPE]  ; [KEEP 32-BIT INS]
     965                            .dwcfi  cfa_offset, 80
     966                    $C$DW$76        .dwtag  DW_TAG_variable, DW_AT_name("ulIdx")
     967                            .dwattr $C$DW$76, DW_AT_TI_symbol_name("ulIdx")
     968                            .dwattr $C$DW$76, DW_AT_type(*$C$DW$T$13)
     969                            .dwattr $C$DW$76, DW_AT_location[DW_OP_breg13 0]
     970                    $C$DW$77        .dwtag  DW_TAG_variable, DW_AT_name("ulValue")
     971                            .dwattr $C$DW$77, DW_AT_TI_symbol_name("ulValue")
     972                            .dwattr $C$DW$77, DW_AT_type(*$C$DW$T$13)
     973                            .dwattr $C$DW$77, DW_AT_location[DW_OP_breg13 4]
     974                    $C$DW$78        .dwtag  DW_TAG_variable, DW_AT_name("ulPos")
     975                            .dwattr $C$DW$78, DW_AT_TI_symbol_name("ulPos")
     976                            .dwattr $C$DW$78, DW_AT_type(*$C$DW$T$13)
     977                            .dwattr $C$DW$78, DW_AT_location[DW_OP_breg13 8]
     978                    $C$DW$79        .dwtag  DW_TAG_variable, DW_AT_name("ulCount")
     979                            .dwattr $C$DW$79, DW_AT_TI_symbol_name("ulCount")
     980                            .dwattr $C$DW$79, DW_AT_type(*$C$DW$T$13)
     981                            .dwattr $C$DW$79, DW_AT_location[DW_OP_breg13 12]
TI ARM Assembler PC v5.1.7 Thu Oct 30 20:25:15 2014

Tools Copyright (c) 1996-2014 Texas Instruments Incorporated
uartstdio.asm                                                        PAGE   19

     982                    $C$DW$80        .dwtag  DW_TAG_variable, DW_AT_name("ulBase")
     983                            .dwattr $C$DW$80, DW_AT_TI_symbol_name("ulBase")
     984                            .dwattr $C$DW$80, DW_AT_type(*$C$DW$T$13)
     985                            .dwattr $C$DW$80, DW_AT_location[DW_OP_breg13 16]
     986                    $C$DW$81        .dwtag  DW_TAG_variable, DW_AT_name("ulNeg")
     987                            .dwattr $C$DW$81, DW_AT_TI_symbol_name("ulNeg")
     988                            .dwattr $C$DW$81, DW_AT_type(*$C$DW$T$13)
     989                            .dwattr $C$DW$81, DW_AT_location[DW_OP_breg13 20]
     990                    $C$DW$82        .dwtag  DW_TAG_variable, DW_AT_name("pcStr")
     991                            .dwattr $C$DW$82, DW_AT_TI_symbol_name("pcStr")
     992                            .dwattr $C$DW$82, DW_AT_type(*$C$DW$T$39)
     993                            .dwattr $C$DW$82, DW_AT_location[DW_OP_breg13 24]
     994                    $C$DW$83        .dwtag  DW_TAG_variable, DW_AT_name("pcBuf")
     995                            .dwattr $C$DW$83, DW_AT_TI_symbol_name("pcBuf")
     996                            .dwattr $C$DW$83, DW_AT_type(*$C$DW$T$56)
     997                            .dwattr $C$DW$83, DW_AT_location[DW_OP_breg13 28]
     998                    $C$DW$84        .dwtag  DW_TAG_variable, DW_AT_name("cFill")
     999                            .dwattr $C$DW$84, DW_AT_TI_symbol_name("cFill")
    1000                            .dwattr $C$DW$84, DW_AT_type(*$C$DW$T$6)
    1001                            .dwattr $C$DW$84, DW_AT_location[DW_OP_breg13 44]
    1002                    $C$DW$85        .dwtag  DW_TAG_variable, DW_AT_name("vaArgP")
    1003                            .dwattr $C$DW$85, DW_AT_TI_symbol_name("vaArgP")
    1004                            .dwattr $C$DW$85, DW_AT_type(*$C$DW$T$63)
    1005                            .dwattr $C$DW$85, DW_AT_location[DW_OP_breg13 48]
    1006                    $C$DW$86        .dwtag  DW_TAG_label, DW_AT_name("again"), DW_AT_low_pc(||$C$L15||)
    1007                            .dwattr $C$DW$86, DW_AT_TI_symbol_name("again")
    1008                    $C$DW$87        .dwtag  DW_TAG_label, DW_AT_name("convert"), DW_AT_low_pc(||$C$L28||)
    1009                            .dwattr $C$DW$87, DW_AT_TI_symbol_name("convert")
    1010                            .dwpsn  file "../Drivers/uartstdio.c",line 936,column 5,is_stmt,isa 1
    1011 000001a2 0003F027          BIC       A1, V4, #3            ; [DPU_3_PIPE] |936|  ; [KEEP 32-BIT INS]
    1012 000001a6 1D00              ADDS      A1, A1, #4            ; [DPU_3_PIPE] |936|  ; [ORIG 16-BIT INS]
    1013 000001a8 900C              STR       A1, [SP, #48]         ; [DPU_3_PIPE] |936|  ; [ORIG 16-BIT INS]
    1014                            .dwpsn  file "../Drivers/uartstdio.c",line 941,column 5,is_stmt,isa 1
    1015 000001aa E16B              B         ||$C$L44||            ; [DPU_3_PIPE] |941|  ; [ORIG 16-BIT INS]
    1016                            ; BRANCH OCCURS {||$C$L44||}     ; [] |941| 
    1017                    ;* --------------------------------------------------------------------------*
    1018 000001ac           ||$C$L11||:    
    1019                            .dwpsn  file "../Drivers/uartstdio.c",line 946,column 13,is_stmt,isa 1
    1020 000001ac 2000              MOVS      A1, #0                ; [DPU_3_PIPE] |946|  ; [ORIG 16-BIT INS]
    1021 000001ae 9000              STR       A1, [SP, #0]          ; [DPU_3_PIPE] |946|  ; [ORIG 16-BIT INS]
    1022 000001b0 E002              B         ||$C$L13||            ; [DPU_3_PIPE] |946|  ; [ORIG 16-BIT INS]
    1023                            ; BRANCH OCCURS {||$C$L13||}     ; [] |946| 
    1024                    ;* --------------------------------------------------------------------------*
    1025 000001b2           ||$C$L12||:    
    1026                            .dwpsn  file "../Drivers/uartstdio.c",line 947,column 13,is_stmt,isa 1
    1027 000001b2 9800              LDR       A1, [SP, #0]          ; [DPU_3_PIPE] |947|  ; [ORIG 16-BIT INS]
    1028 000001b4 1C40              ADDS      A1, A1, #1            ; [DPU_3_PIPE] |947|  ; [ORIG 16-BIT INS]
    1029 000001b6 9000              STR       A1, [SP, #0]          ; [DPU_3_PIPE] |947|  ; [ORIG 16-BIT INS]
    1030                    ;* --------------------------------------------------------------------------*
    1031                    ;*   BEGIN LOOP ||$C$L13||
    1032                    ;* --------------------------------------------------------------------------*
    1033 000001b8           ||$C$L13||:    
    1034                            .dwpsn  file "../Drivers/uartstdio.c",line 946,column 24,is_stmt,isa 1
    1035 000001b8 6838              LDR       A1, [V4, #0]          ; [DPU_3_PIPE] |946|  ; [ORIG 16-BIT INS]
    1036 000001ba 9900              LDR       A2, [SP, #0]          ; [DPU_3_PIPE] |946|  ; [ORIG 16-BIT INS]
TI ARM Assembler PC v5.1.7 Thu Oct 30 20:25:15 2014

Tools Copyright (c) 1996-2014 Texas Instruments Incorporated
uartstdio.asm                                                        PAGE   20

    1037 000001bc 5C08              LDRB      A1, [A2, +A1]         ; [DPU_3_PIPE] |946|  ; [ORIG 16-BIT INS]
    1038 000001be 2825              CMP       A1, #37               ; [DPU_3_PIPE] |946|  ; [ORIG 16-BIT INS]
    1039 000001c0 D004              BEQ       ||$C$L14||            ; [DPU_3_PIPE] |946|  ; [ORIG 16-BIT INS]
    1040                            ; BRANCHCC OCCURS {||$C$L14||}   ; [] |946| 
    1041                    ;* --------------------------------------------------------------------------*
    1042 000001c2 6838              LDR       A1, [V4, #0]          ; [DPU_3_PIPE] |946|  ; [ORIG 16-BIT INS]
    1043 000001c4 9900              LDR       A2, [SP, #0]          ; [DPU_3_PIPE] |946|  ; [ORIG 16-BIT INS]
    1044 000001c6 5C08              LDRB      A1, [A2, +A1]         ; [DPU_3_PIPE] |946|  ; [ORIG 16-BIT INS]
    1045 000001c8 2800              CMP       A1, #0                ; [DPU_3_PIPE] |946|  ; [ORIG 16-BIT INS]
    1046 000001ca D1F2              BNE       ||$C$L12||            ; [DPU_3_PIPE] |946|  ; [ORIG 16-BIT INS]
    1047                            ; BRANCHCC OCCURS {||$C$L12||}   ; [] |946| 
    1048                    ;* --------------------------------------------------------------------------*
    1049 000001cc           ||$C$L14||:    
    1050                            .dwpsn  file "../Drivers/uartstdio.c",line 954,column 9,is_stmt,isa 1
    1051 000001cc 6838              LDR       A1, [V4, #0]          ; [DPU_3_PIPE] |954|  ; [ORIG 16-BIT INS]
    1052 000001ce 9900              LDR       A2, [SP, #0]          ; [DPU_3_PIPE] |954|  ; [ORIG 16-BIT INS]
    1053                    $C$DW$88        .dwtag  DW_TAG_TI_branch
    1054                            .dwattr $C$DW$88, DW_AT_low_pc(0x00)
    1055                            .dwattr $C$DW$88, DW_AT_name("UARTwrite")
    1056                            .dwattr $C$DW$88, DW_AT_TI_call
    1057 000001d0 FF4FF7FF          BL        UARTwrite             ; [DPU_3_PIPE] |954|  ; [KEEP 32-BIT INS]
    1058                            ; CALL OCCURS {UARTwrite }       ; [] |954| 
    1059                            .dwpsn  file "../Drivers/uartstdio.c",line 959,column 9,is_stmt,isa 1
    1060 000001d4 6839              LDR       A2, [V4, #0]          ; [DPU_3_PIPE] |959|  ; [ORIG 16-BIT INS]
    1061 000001d6 9800              LDR       A1, [SP, #0]          ; [DPU_3_PIPE] |959|  ; [ORIG 16-BIT INS]
    1062 000001d8 1840              ADDS      A1, A1, A2            ; [DPU_3_PIPE] |959|  ; [ORIG 16-BIT INS]
    1063 000001da 6038              STR       A1, [V4, #0]          ; [DPU_3_PIPE] |959|  ; [ORIG 16-BIT INS]
    1064                            .dwpsn  file "../Drivers/uartstdio.c",line 964,column 9,is_stmt,isa 1
    1065 000001dc 6838              LDR       A1, [V4, #0]          ; [DPU_3_PIPE] |964|  ; [ORIG 16-BIT INS]
    1066 000001de 7800              LDRB      A1, [A1, #0]          ; [DPU_3_PIPE] |964|  ; [ORIG 16-BIT INS]
    1067 000001e0 2825              CMP       A1, #37               ; [DPU_3_PIPE] |964|  ; [ORIG 16-BIT INS]
    1068 000001e2 814FF040          BNE       ||$C$L44||            ; [DPU_3_PIPE] |964|  ; [KEEP 32-BIT INS]
    1069                            ; BRANCHCC OCCURS {||$C$L44||}   ; [] |964| 
    1070                    ;* --------------------------------------------------------------------------*
    1071                            .dwpsn  file "../Drivers/uartstdio.c",line 969,column 13,is_stmt,isa 1
    1072 000001e6 6838              LDR       A1, [V4, #0]          ; [DPU_3_PIPE] |969|  ; [ORIG 16-BIT INS]
    1073 000001e8 1C40              ADDS      A1, A1, #1            ; [DPU_3_PIPE] |969|  ; [ORIG 16-BIT INS]
    1074 000001ea 6038              STR       A1, [V4, #0]          ; [DPU_3_PIPE] |969|  ; [ORIG 16-BIT INS]
    1075                            .dwpsn  file "../Drivers/uartstdio.c",line 975,column 13,is_stmt,isa 1
    1076 000001ec 2000              MOVS      A1, #0                ; [DPU_3_PIPE] |975|  ; [ORIG 16-BIT INS]
    1077 000001ee 9003              STR       A1, [SP, #12]         ; [DPU_3_PIPE] |975|  ; [ORIG 16-BIT INS]
    1078                            .dwpsn  file "../Drivers/uartstdio.c",line 976,column 13,is_stmt,isa 1
    1079 000001f0 2020              MOVS      A1, #32               ; [DPU_3_PIPE] |976|  ; [ORIG 16-BIT INS]
    1080 000001f2 002CF88D          STRB      A1, [SP, #44]         ; [DPU_3_PIPE] |976|  ; [KEEP 32-BIT INS]
    1081                    ;* --------------------------------------------------------------------------*
    1082 000001f6           ||$C$L15||:    
    1083                            .dwpsn  file "../Drivers/uartstdio.c",line 988,column 13,is_stmt,isa 1
    1084 000001f6 E108              B         ||$C$L41||            ; [DPU_3_PIPE] |988|  ; [ORIG 16-BIT INS]
    1085                            ; BRANCH OCCURS {||$C$L41||}     ; [] |988| 
    1086                    ;* --------------------------------------------------------------------------*
    1087 000001f8           ||$C$L16||:    
    1088                            .dwpsn  file "../Drivers/uartstdio.c",line 1008,column 21,is_stmt,isa 1
    1089 000001f8 6838              LDR       A1, [V4, #0]          ; [DPU_3_PIPE] |1008|  ; [ORIG 16-BIT INS]
    1090 000001fa 0C01F810          LDRB      A1, [A1, #-1]         ; [DPU_3_PIPE] |1008|  ; [KEEP 32-BIT INS]
    1091 000001fe 2830              CMP       A1, #48               ; [DPU_3_PIPE] |1008|  ; [ORIG 16-BIT INS]
TI ARM Assembler PC v5.1.7 Thu Oct 30 20:25:15 2014

Tools Copyright (c) 1996-2014 Texas Instruments Incorporated
uartstdio.asm                                                        PAGE   21

    1092 00000200 D104              BNE       ||$C$L17||            ; [DPU_3_PIPE] |1008|  ; [ORIG 16-BIT INS]
    1093                            ; BRANCHCC OCCURS {||$C$L17||}   ; [] |1008| 
    1094                    ;* --------------------------------------------------------------------------*
    1095 00000202 9803              LDR       A1, [SP, #12]         ; [DPU_3_PIPE] |1008|  ; [ORIG 16-BIT INS]
    1096 00000204 B910              CBNZ      A1, ||$C$L17||        ; []  ; [ORIG 16-BIT INS]
    1097                            ; BRANCHCC OCCURS {||$C$L17||}   ; [] |1008| 
    1098                    ;* --------------------------------------------------------------------------*
    1099                            .dwpsn  file "../Drivers/uartstdio.c",line 1010,column 25,is_stmt,isa 1
    1100 00000206 2030              MOVS      A1, #48               ; [DPU_3_PIPE] |1010|  ; [ORIG 16-BIT INS]
    1101 00000208 002CF88D          STRB      A1, [SP, #44]         ; [DPU_3_PIPE] |1010|  ; [KEEP 32-BIT INS]
    1102                    ;* --------------------------------------------------------------------------*
    1103 0000020c           ||$C$L17||:    
    1104                            .dwpsn  file "../Drivers/uartstdio.c",line 1016,column 21,is_stmt,isa 1
    1105 0000020c 9903              LDR       A2, [SP, #12]         ; [DPU_3_PIPE] |1016|  ; [ORIG 16-BIT INS]
    1106 0000020e 0048              LSLS      A1, A2, #1            ; [DPU_3_PIPE] |1016|  ; [ORIG 16-BIT INS]
    1107 00000210 00C1EB00          ADD       A1, A1, A2, LSL #3    ; [DPU_3_PIPE] |1016|  ; [KEEP 32-BIT INS]
    1108 00000214 9003              STR       A1, [SP, #12]         ; [DPU_3_PIPE] |1016|  ; [ORIG 16-BIT INS]
    1109                            .dwpsn  file "../Drivers/uartstdio.c",line 1017,column 21,is_stmt,isa 1
    1110 00000216 6838              LDR       A1, [V4, #0]          ; [DPU_3_PIPE] |1017|  ; [ORIG 16-BIT INS]
    1111 00000218 9903              LDR       A2, [SP, #12]         ; [DPU_3_PIPE] |1017|  ; [ORIG 16-BIT INS]
    1112 0000021a 0C01F810          LDRB      A1, [A1, #-1]         ; [DPU_3_PIPE] |1017|  ; [KEEP 32-BIT INS]
    1113 0000021e 3830              SUBS      A1, A1, #48           ; [DPU_3_PIPE] |1017|  ; [ORIG 16-BIT INS]
    1114 00000220 1809              ADDS      A2, A2, A1            ; [DPU_3_PIPE] |1017|  ; [ORIG 16-BIT INS]
    1115 00000222 9103              STR       A2, [SP, #12]         ; [DPU_3_PIPE] |1017|  ; [ORIG 16-BIT INS]
    1116                            .dwpsn  file "../Drivers/uartstdio.c",line 1022,column 21,is_stmt,isa 1
    1117 00000224 E0F1              B         ||$C$L41||            ; [DPU_3_PIPE] |1022|  ; [ORIG 16-BIT INS]
    1118                            ; BRANCH OCCURS {||$C$L41||}     ; [] |1022| 
    1119                    ;* --------------------------------------------------------------------------*
    1120 00000226           ||$C$L18||:    
    1121                            .dwpsn  file "../Drivers/uartstdio.c",line 1033,column 21,is_stmt,isa 1
    1122 00000226 980C              LDR       A1, [SP, #48]         ; [DPU_3_PIPE] |1033|  ; [ORIG 16-BIT INS]
    1123 00000228 1CC0              ADDS      A1, A1, #3            ; [DPU_3_PIPE] |1033|  ; [ORIG 16-BIT INS]
    1124 0000022a 0003F020          BIC       A1, A1, #3            ; [DPU_3_PIPE] |1033|  ; [KEEP 32-BIT INS]
    1125 0000022e 1D00              ADDS      A1, A1, #4            ; [DPU_3_PIPE] |1033|  ; [ORIG 16-BIT INS]
    1126 00000230 900C              STR       A1, [SP, #48]         ; [DPU_3_PIPE] |1033|  ; [ORIG 16-BIT INS]
    1127 00000232 980C              LDR       A1, [SP, #48]         ; [DPU_3_PIPE] |1033|  ; [ORIG 16-BIT INS]
    1128 00000234 0C04F850          LDR       A1, [A1, #-4]         ; [DPU_3_PIPE] |1033|  ; [KEEP 32-BIT INS]
    1129 00000238 9001              STR       A1, [SP, #4]          ; [DPU_3_PIPE] |1033|  ; [ORIG 16-BIT INS]
    1130                            .dwpsn  file "../Drivers/uartstdio.c",line 1038,column 21,is_stmt,isa 1
    1131 0000023a 2101              MOVS      A2, #1                ; [DPU_3_PIPE] |1038|  ; [ORIG 16-BIT INS]
    1132 0000023c A801              ADD       A1, SP, #4            ; [DPU_3_PIPE] |1038|  ; [ORIG 16-BIT INS]
    1133                    $C$DW$89        .dwtag  DW_TAG_TI_branch
    1134                            .dwattr $C$DW$89, DW_AT_low_pc(0x00)
    1135                            .dwattr $C$DW$89, DW_AT_name("UARTwrite")
    1136                            .dwattr $C$DW$89, DW_AT_TI_call
    1137 0000023e FF18F7FF          BL        UARTwrite             ; [DPU_3_PIPE] |1038|  ; [KEEP 32-BIT INS]
    1138                            ; CALL OCCURS {UARTwrite }       ; [] |1038| 
    1139                            .dwpsn  file "../Drivers/uartstdio.c",line 1043,column 21,is_stmt,isa 1
    1140 00000242 E11F              B         ||$C$L44||            ; [DPU_3_PIPE] |1043|  ; [ORIG 16-BIT INS]
    1141                            ; BRANCH OCCURS {||$C$L44||}     ; [] |1043| 
    1142                    ;* --------------------------------------------------------------------------*
    1143 00000244           ||$C$L19||:    
    1144                            .dwpsn  file "../Drivers/uartstdio.c",line 1055,column 21,is_stmt,isa 1
    1145 00000244 980C              LDR       A1, [SP, #48]         ; [DPU_3_PIPE] |1055|  ; [ORIG 16-BIT INS]
    1146 00000246 1CC0              ADDS      A1, A1, #3            ; [DPU_3_PIPE] |1055|  ; [ORIG 16-BIT INS]
TI ARM Assembler PC v5.1.7 Thu Oct 30 20:25:15 2014

Tools Copyright (c) 1996-2014 Texas Instruments Incorporated
uartstdio.asm                                                        PAGE   22

    1147 00000248 0003F020          BIC       A1, A1, #3            ; [DPU_3_PIPE] |1055|  ; [KEEP 32-BIT INS]
    1148 0000024c 1D00              ADDS      A1, A1, #4            ; [DPU_3_PIPE] |1055|  ; [ORIG 16-BIT INS]
    1149 0000024e 900C              STR       A1, [SP, #48]         ; [DPU_3_PIPE] |1055|  ; [ORIG 16-BIT INS]
    1150 00000250 980C              LDR       A1, [SP, #48]         ; [DPU_3_PIPE] |1055|  ; [ORIG 16-BIT INS]
    1151 00000252 0C04F850          LDR       A1, [A1, #-4]         ; [DPU_3_PIPE] |1055|  ; [KEEP 32-BIT INS]
    1152 00000256 9001              STR       A1, [SP, #4]          ; [DPU_3_PIPE] |1055|  ; [ORIG 16-BIT INS]
    1153                            .dwpsn  file "../Drivers/uartstdio.c",line 1060,column 21,is_stmt,isa 1
    1154 00000258 2000              MOVS      A1, #0                ; [DPU_3_PIPE] |1060|  ; [ORIG 16-BIT INS]
    1155 0000025a 9002              STR       A1, [SP, #8]          ; [DPU_3_PIPE] |1060|  ; [ORIG 16-BIT INS]
    1156                            .dwpsn  file "../Drivers/uartstdio.c",line 1066,column 21,is_stmt,isa 1
    1157 0000025c 9801              LDR       A1, [SP, #4]          ; [DPU_3_PIPE] |1066|  ; [ORIG 16-BIT INS]
    1158 0000025e 2800              CMP       A1, #0                ; [DPU_3_PIPE] |1066|  ; [ORIG 16-BIT INS]
    1159 00000260 D505              BPL       ||$C$L20||            ; [DPU_3_PIPE] |1066|  ; [ORIG 16-BIT INS]
    1160                            ; BRANCHCC OCCURS {||$C$L20||}   ; [] |1066| 
    1161                    ;* --------------------------------------------------------------------------*
    1162                            .dwpsn  file "../Drivers/uartstdio.c",line 1071,column 25,is_stmt,isa 1
    1163 00000262 9801              LDR       A1, [SP, #4]          ; [DPU_3_PIPE] |1071|  ; [ORIG 16-BIT INS]
    1164 00000264 4240              RSBS      A1, A1, #0            ; [DPU_3_PIPE] |1071|  ; [ORIG 16-BIT INS]
    1165 00000266 9001              STR       A1, [SP, #4]          ; [DPU_3_PIPE] |1071|  ; [ORIG 16-BIT INS]
    1166                            .dwpsn  file "../Drivers/uartstdio.c",line 1076,column 25,is_stmt,isa 1
    1167 00000268 2001              MOVS      A1, #1                ; [DPU_3_PIPE] |1076|  ; [ORIG 16-BIT INS]
    1168 0000026a 9005              STR       A1, [SP, #20]         ; [DPU_3_PIPE] |1076|  ; [ORIG 16-BIT INS]
    1169                            .dwpsn  file "../Drivers/uartstdio.c",line 1077,column 21,is_stmt,isa 1
    1170 0000026c E001              B         ||$C$L21||            ; [DPU_3_PIPE] |1077|  ; [ORIG 16-BIT INS]
    1171                            ; BRANCH OCCURS {||$C$L21||}     ; [] |1077| 
    1172                    ;* --------------------------------------------------------------------------*
    1173 0000026e           ||$C$L20||:    
    1174                            .dwpsn  file "../Drivers/uartstdio.c",line 1084,column 25,is_stmt,isa 1
    1175 0000026e 2000              MOVS      A1, #0                ; [DPU_3_PIPE] |1084|  ; [ORIG 16-BIT INS]
    1176 00000270 9005              STR       A1, [SP, #20]         ; [DPU_3_PIPE] |1084|  ; [ORIG 16-BIT INS]
    1177                    ;* --------------------------------------------------------------------------*
    1178 00000272           ||$C$L21||:    
    1179                            .dwpsn  file "../Drivers/uartstdio.c",line 1090,column 21,is_stmt,isa 1
    1180 00000272 200A              MOVS      A1, #10               ; [DPU_3_PIPE] |1090|  ; [ORIG 16-BIT INS]
    1181 00000274 9004              STR       A1, [SP, #16]         ; [DPU_3_PIPE] |1090|  ; [ORIG 16-BIT INS]
    1182                            .dwpsn  file "../Drivers/uartstdio.c",line 1095,column 21,is_stmt,isa 1
    1183 00000276 E053              B         ||$C$L28||            ; [DPU_3_PIPE] |1095|  ; [ORIG 16-BIT INS]
    1184                            ; BRANCH OCCURS {||$C$L28||}     ; [] |1095| 
    1185                    ;* --------------------------------------------------------------------------*
    1186 00000278           ||$C$L22||:    
    1187                            .dwpsn  file "../Drivers/uartstdio.c",line 1106,column 21,is_stmt,isa 1
    1188 00000278 980C              LDR       A1, [SP, #48]         ; [DPU_3_PIPE] |1106|  ; [ORIG 16-BIT INS]
    1189 0000027a 1CC0              ADDS      A1, A1, #3            ; [DPU_3_PIPE] |1106|  ; [ORIG 16-BIT INS]
    1190 0000027c 0003F020          BIC       A1, A1, #3            ; [DPU_3_PIPE] |1106|  ; [KEEP 32-BIT INS]
    1191 00000280 1D00              ADDS      A1, A1, #4            ; [DPU_3_PIPE] |1106|  ; [ORIG 16-BIT INS]
    1192 00000282 900C              STR       A1, [SP, #48]         ; [DPU_3_PIPE] |1106|  ; [ORIG 16-BIT INS]
    1193 00000284 980C              LDR       A1, [SP, #48]         ; [DPU_3_PIPE] |1106|  ; [ORIG 16-BIT INS]
    1194 00000286 0C04F850          LDR       A1, [A1, #-4]         ; [DPU_3_PIPE] |1106|  ; [KEEP 32-BIT INS]
    1195 0000028a 9006              STR       A1, [SP, #24]         ; [DPU_3_PIPE] |1106|  ; [ORIG 16-BIT INS]
    1196                            .dwpsn  file "../Drivers/uartstdio.c",line 1111,column 25,is_stmt,isa 1
    1197 0000028c 2000              MOVS      A1, #0                ; [DPU_3_PIPE] |1111|  ; [ORIG 16-BIT INS]
    1198 0000028e 9000              STR       A1, [SP, #0]          ; [DPU_3_PIPE] |1111|  ; [ORIG 16-BIT INS]
    1199 00000290 E002              B         ||$C$L24||            ; [DPU_3_PIPE] |1111|  ; [ORIG 16-BIT INS]
    1200                            ; BRANCH OCCURS {||$C$L24||}     ; [] |1111| 
    1201                    ;* --------------------------------------------------------------------------*
TI ARM Assembler PC v5.1.7 Thu Oct 30 20:25:15 2014

Tools Copyright (c) 1996-2014 Texas Instruments Incorporated
uartstdio.asm                                                        PAGE   23

    1202 00000292           ||$C$L23||:    
    1203                            .dwpsn  file "../Drivers/uartstdio.c",line 1111,column 58,is_stmt,isa 1
    1204 00000292 9800              LDR       A1, [SP, #0]          ; [DPU_3_PIPE] |1111|  ; [ORIG 16-BIT INS]
    1205 00000294 1C40              ADDS      A1, A1, #1            ; [DPU_3_PIPE] |1111|  ; [ORIG 16-BIT INS]
    1206 00000296 9000              STR       A1, [SP, #0]          ; [DPU_3_PIPE] |1111|  ; [ORIG 16-BIT INS]
    1207                    ;* --------------------------------------------------------------------------*
    1208                    ;*   BEGIN LOOP ||$C$L24||
    1209                    ;* --------------------------------------------------------------------------*
    1210 00000298           ||$C$L24||:    
    1211                            .dwpsn  file "../Drivers/uartstdio.c",line 1111,column 36,is_stmt,isa 1
    1212 00000298 9806              LDR       A1, [SP, #24]         ; [DPU_3_PIPE] |1111|  ; [ORIG 16-BIT INS]
    1213 0000029a 9900              LDR       A2, [SP, #0]          ; [DPU_3_PIPE] |1111|  ; [ORIG 16-BIT INS]
    1214 0000029c 5C08              LDRB      A1, [A2, +A1]         ; [DPU_3_PIPE] |1111|  ; [ORIG 16-BIT INS]
    1215 0000029e 2800              CMP       A1, #0                ; [DPU_3_PIPE] |1111|  ; [ORIG 16-BIT INS]
    1216 000002a0 D1F7              BNE       ||$C$L23||            ; [DPU_3_PIPE] |1111|  ; [ORIG 16-BIT INS]
    1217                            ; BRANCHCC OCCURS {||$C$L23||}   ; [] |1111| 
    1218                    ;* --------------------------------------------------------------------------*
    1219                            .dwpsn  file "../Drivers/uartstdio.c",line 1118,column 21,is_stmt,isa 1
    1220 000002a2 9806              LDR       A1, [SP, #24]         ; [DPU_3_PIPE] |1118|  ; [ORIG 16-BIT INS]
    1221 000002a4 9900              LDR       A2, [SP, #0]          ; [DPU_3_PIPE] |1118|  ; [ORIG 16-BIT INS]
    1222                    $C$DW$90        .dwtag  DW_TAG_TI_branch
    1223                            .dwattr $C$DW$90, DW_AT_low_pc(0x00)
    1224                            .dwattr $C$DW$90, DW_AT_name("UARTwrite")
    1225                            .dwattr $C$DW$90, DW_AT_TI_call
    1226 000002a6 FEE4F7FF          BL        UARTwrite             ; [DPU_3_PIPE] |1118|  ; [KEEP 32-BIT INS]
    1227                            ; CALL OCCURS {UARTwrite }       ; [] |1118| 
    1228                            .dwpsn  file "../Drivers/uartstdio.c",line 1123,column 21,is_stmt,isa 1
    1229 000002aa 9800              LDR       A1, [SP, #0]          ; [DPU_3_PIPE] |1123|  ; [ORIG 16-BIT INS]
    1230 000002ac 9903              LDR       A2, [SP, #12]         ; [DPU_3_PIPE] |1123|  ; [ORIG 16-BIT INS]
    1231 000002ae 4288              CMP       A1, A2                ; [DPU_3_PIPE] |1123|  ; [ORIG 16-BIT INS]
    1232 000002b0 80E8F080          BCS       ||$C$L44||            ; [DPU_3_PIPE] |1123|  ; [KEEP 32-BIT INS]
    1233                            ; BRANCHCC OCCURS {||$C$L44||}   ; [] |1123| 
    1234                    ;* --------------------------------------------------------------------------*
    1235                            .dwpsn  file "../Drivers/uartstdio.c",line 1125,column 25,is_stmt,isa 1
    1236 000002b4 9900              LDR       A2, [SP, #0]          ; [DPU_3_PIPE] |1125|  ; [ORIG 16-BIT INS]
    1237 000002b6 9803              LDR       A1, [SP, #12]         ; [DPU_3_PIPE] |1125|  ; [ORIG 16-BIT INS]
    1238 000002b8 1A40              SUBS      A1, A1, A2            ; [DPU_3_PIPE] |1125|  ; [ORIG 16-BIT INS]
    1239 000002ba 9003              STR       A1, [SP, #12]         ; [DPU_3_PIPE] |1125|  ; [ORIG 16-BIT INS]
    1240                            .dwpsn  file "../Drivers/uartstdio.c",line 1126,column 25,is_stmt,isa 1
    1241 000002bc 9803              LDR       A1, [SP, #12]         ; [DPU_3_PIPE] |1126|  ; [ORIG 16-BIT INS]
    1242 000002be 2800              CMP       A1, #0                ; [DPU_3_PIPE] |1126|  ; [ORIG 16-BIT INS]
    1243 000002c0 0101F1A0          SUB       A2, A1, #1            ; [DPU_3_PIPE] |1126|  ; [KEEP 32-BIT INS]
    1244 000002c4 9103              STR       A2, [SP, #12]         ; [DPU_3_PIPE] |1126|  ; [ORIG 16-BIT INS]
    1245 000002c6 80DDF000          BEQ       ||$C$L44||            ; [DPU_3_PIPE] |1126|  ; [KEEP 32-BIT INS]
    1246                            ; BRANCHCC OCCURS {||$C$L44||}   ; [] |1126| 
    1247                    ;* --------------------------------------------------------------------------*
    1248                    ;*   BEGIN LOOP ||$C$L25||
    1249                    ;*
    1250                    ;*   Loop source line                : 1126
    1251                    ;*   Loop closing brace source line  : 1129
    1252                    ;*   Known Minimum Trip Count        : 1
    1253                    ;*   Known Maximum Trip Count        : 4294967295
    1254                    ;*   Known Max Trip Count Factor     : 1
    1255                    ;* --------------------------------------------------------------------------*
    1256 000002ca           ||$C$L25||:    
TI ARM Assembler PC v5.1.7 Thu Oct 30 20:25:15 2014

Tools Copyright (c) 1996-2014 Texas Instruments Incorporated
uartstdio.asm                                                        PAGE   24

    1257                            .dwpsn  file "../Drivers/uartstdio.c",line 1128,column 29,is_stmt,isa 1
    1258 000002ca A073              ADR       A1, $C$SL4            ; [DPU_3_PIPE] |1128|  ; [ORIG 16-BIT INS]
    1259 000002cc 2101              MOVS      A2, #1                ; [DPU_3_PIPE] |1128|  ; [ORIG 16-BIT INS]
    1260                    $C$DW$91        .dwtag  DW_TAG_TI_branch
    1261                            .dwattr $C$DW$91, DW_AT_low_pc(0x00)
    1262                            .dwattr $C$DW$91, DW_AT_name("UARTwrite")
    1263                            .dwattr $C$DW$91, DW_AT_TI_call
    1264 000002ce FED0F7FF          BL        UARTwrite             ; [DPU_3_PIPE] |1128|  ; [KEEP 32-BIT INS]
    1265                            ; CALL OCCURS {UARTwrite }       ; [] |1128| 
    1266                            .dwpsn  file "../Drivers/uartstdio.c",line 1129,column 25,is_stmt,isa 1
    1267 000002d2 9803              LDR       A1, [SP, #12]         ; [DPU_3_PIPE] |1129|  ; [ORIG 16-BIT INS]
    1268 000002d4 1E41              SUBS      A2, A1, #1            ; [DPU_3_PIPE] |1129|  ; [ORIG 16-BIT INS]
    1269 000002d6 2800              CMP       A1, #0                ; [DPU_3_PIPE] |1129|  ; [ORIG 16-BIT INS]
    1270 000002d8 9103              STR       A2, [SP, #12]         ; [DPU_3_PIPE] |1129|  ; [ORIG 16-BIT INS]
    1271 000002da D1F6              BNE       ||$C$L25||            ; [DPU_3_PIPE] |1129|  ; [ORIG 16-BIT INS]
    1272                            ; BRANCHCC OCCURS {||$C$L25||}   ; [] |1129| 
    1273                    ;* --------------------------------------------------------------------------*
    1274                            .dwpsn  file "../Drivers/uartstdio.c",line 1134,column 21,is_stmt,isa 1
    1275 000002dc E0D2              B         ||$C$L44||            ; [DPU_3_PIPE] |1134|  ; [ORIG 16-BIT INS]
    1276                            ; BRANCH OCCURS {||$C$L44||}     ; [] |1134| 
    1277                    ;* --------------------------------------------------------------------------*
    1278 000002de           ||$C$L26||:    
    1279                            .dwpsn  file "../Drivers/uartstdio.c",line 1145,column 21,is_stmt,isa 1
    1280 000002de 980C              LDR       A1, [SP, #48]         ; [DPU_3_PIPE] |1145|  ; [ORIG 16-BIT INS]
    1281 000002e0 1CC0              ADDS      A1, A1, #3            ; [DPU_3_PIPE] |1145|  ; [ORIG 16-BIT INS]
    1282 000002e2 0003F020          BIC       A1, A1, #3            ; [DPU_3_PIPE] |1145|  ; [KEEP 32-BIT INS]
    1283 000002e6 1D00              ADDS      A1, A1, #4            ; [DPU_3_PIPE] |1145|  ; [ORIG 16-BIT INS]
    1284 000002e8 900C              STR       A1, [SP, #48]         ; [DPU_3_PIPE] |1145|  ; [ORIG 16-BIT INS]
    1285 000002ea 980C              LDR       A1, [SP, #48]         ; [DPU_3_PIPE] |1145|  ; [ORIG 16-BIT INS]
    1286 000002ec 0C04F850          LDR       A1, [A1, #-4]         ; [DPU_3_PIPE] |1145|  ; [KEEP 32-BIT INS]
    1287 000002f0 9001              STR       A1, [SP, #4]          ; [DPU_3_PIPE] |1145|  ; [ORIG 16-BIT INS]
    1288                            .dwpsn  file "../Drivers/uartstdio.c",line 1150,column 21,is_stmt,isa 1
    1289 000002f2 2000              MOVS      A1, #0                ; [DPU_3_PIPE] |1150|  ; [ORIG 16-BIT INS]
    1290 000002f4 9002              STR       A1, [SP, #8]          ; [DPU_3_PIPE] |1150|  ; [ORIG 16-BIT INS]
    1291                            .dwpsn  file "../Drivers/uartstdio.c",line 1155,column 21,is_stmt,isa 1
    1292 000002f6 200A              MOVS      A1, #10               ; [DPU_3_PIPE] |1155|  ; [ORIG 16-BIT INS]
    1293 000002f8 9004              STR       A1, [SP, #16]         ; [DPU_3_PIPE] |1155|  ; [ORIG 16-BIT INS]
    1294                            .dwpsn  file "../Drivers/uartstdio.c",line 1161,column 21,is_stmt,isa 1
    1295 000002fa 2000              MOVS      A1, #0                ; [DPU_3_PIPE] |1161|  ; [ORIG 16-BIT INS]
    1296 000002fc 9005              STR       A1, [SP, #20]         ; [DPU_3_PIPE] |1161|  ; [ORIG 16-BIT INS]
    1297                            .dwpsn  file "../Drivers/uartstdio.c",line 1166,column 21,is_stmt,isa 1
    1298 000002fe E00F              B         ||$C$L28||            ; [DPU_3_PIPE] |1166|  ; [ORIG 16-BIT INS]
    1299                            ; BRANCH OCCURS {||$C$L28||}     ; [] |1166| 
    1300                    ;* --------------------------------------------------------------------------*
    1301 00000300           ||$C$L27||:    
    1302                            .dwpsn  file "../Drivers/uartstdio.c",line 1182,column 21,is_stmt,isa 1
    1303 00000300 980C              LDR       A1, [SP, #48]         ; [DPU_3_PIPE] |1182|  ; [ORIG 16-BIT INS]
    1304 00000302 1CC0              ADDS      A1, A1, #3            ; [DPU_3_PIPE] |1182|  ; [ORIG 16-BIT INS]
    1305 00000304 0003F020          BIC       A1, A1, #3            ; [DPU_3_PIPE] |1182|  ; [KEEP 32-BIT INS]
    1306 00000308 1D00              ADDS      A1, A1, #4            ; [DPU_3_PIPE] |1182|  ; [ORIG 16-BIT INS]
    1307 0000030a 900C              STR       A1, [SP, #48]         ; [DPU_3_PIPE] |1182|  ; [ORIG 16-BIT INS]
    1308 0000030c 980C              LDR       A1, [SP, #48]         ; [DPU_3_PIPE] |1182|  ; [ORIG 16-BIT INS]
    1309 0000030e 0C04F850          LDR       A1, [A1, #-4]         ; [DPU_3_PIPE] |1182|  ; [KEEP 32-BIT INS]
    1310 00000312 9001              STR       A1, [SP, #4]          ; [DPU_3_PIPE] |1182|  ; [ORIG 16-BIT INS]
    1311                            .dwpsn  file "../Drivers/uartstdio.c",line 1187,column 21,is_stmt,isa 1
TI ARM Assembler PC v5.1.7 Thu Oct 30 20:25:15 2014

Tools Copyright (c) 1996-2014 Texas Instruments Incorporated
uartstdio.asm                                                        PAGE   25

    1312 00000314 2000              MOVS      A1, #0                ; [DPU_3_PIPE] |1187|  ; [ORIG 16-BIT INS]
    1313 00000316 9002              STR       A1, [SP, #8]          ; [DPU_3_PIPE] |1187|  ; [ORIG 16-BIT INS]
    1314                            .dwpsn  file "../Drivers/uartstdio.c",line 1192,column 21,is_stmt,isa 1
    1315 00000318 2010              MOVS      A1, #16               ; [DPU_3_PIPE] |1192|  ; [ORIG 16-BIT INS]
    1316 0000031a 9004              STR       A1, [SP, #16]         ; [DPU_3_PIPE] |1192|  ; [ORIG 16-BIT INS]
    1317                            .dwpsn  file "../Drivers/uartstdio.c",line 1198,column 21,is_stmt,isa 1
    1318 0000031c 2000              MOVS      A1, #0                ; [DPU_3_PIPE] |1198|  ; [ORIG 16-BIT INS]
    1319 0000031e 9005              STR       A1, [SP, #20]         ; [DPU_3_PIPE] |1198|  ; [ORIG 16-BIT INS]
    1320                    ;* --------------------------------------------------------------------------*
    1321 00000320           ||$C$L28||:    
    1322                            .dwpsn  file "../Drivers/uartstdio.c",line 1205,column 25,is_stmt,isa 1
    1323 00000320 2001              MOVS      A1, #1                ; [DPU_3_PIPE] |1205|  ; [ORIG 16-BIT INS]
    1324 00000322 9000              STR       A1, [SP, #0]          ; [DPU_3_PIPE] |1205|  ; [ORIG 16-BIT INS]
    1325 00000324 E006              B         ||$C$L30||            ; [DPU_3_PIPE] |1205|  ; [ORIG 16-BIT INS]
    1326                            ; BRANCH OCCURS {||$C$L30||}     ; [] |1205| 
    1327                    ;* --------------------------------------------------------------------------*
    1328 00000326           ||$C$L29||:    
    1329                            .dwpsn  file "../Drivers/uartstdio.c",line 1208,column 25,is_stmt,isa 1
    1330 00000326 9803              LDR       A1, [SP, #12]         ; [DPU_3_PIPE] |1208|  ; [ORIG 16-BIT INS]
    1331 00000328 9A00              LDR       A3, [SP, #0]          ; [DPU_3_PIPE] |1208|  ; [ORIG 16-BIT INS]
    1332 0000032a 9904              LDR       A2, [SP, #16]         ; [DPU_3_PIPE] |1208|  ; [ORIG 16-BIT INS]
    1333 0000032c 1E40              SUBS      A1, A1, #1            ; [DPU_3_PIPE] |1208|  ; [ORIG 16-BIT INS]
    1334 0000032e 9003              STR       A1, [SP, #12]         ; [DPU_3_PIPE] |1208|  ; [ORIG 16-BIT INS]
    1335 00000330 4351              MULS      A2, A2, A3            ; [DPU_3_PIPE] |1208|  ; [ORIG 16-BIT INS]
    1336 00000332 9100              STR       A2, [SP, #0]          ; [DPU_3_PIPE] |1208|  ; [ORIG 16-BIT INS]
    1337                    ;* --------------------------------------------------------------------------*
    1338                    ;*   BEGIN LOOP ||$C$L30||
    1339                    ;* --------------------------------------------------------------------------*
    1340 00000334           ||$C$L30||:    
    1341                            .dwpsn  file "../Drivers/uartstdio.c",line 1206,column 26,is_stmt,isa 1
    1342 00000334 9A00              LDR       A3, [SP, #0]          ; [DPU_3_PIPE] |1206|  ; [ORIG 16-BIT INS]
    1343 00000336 9804              LDR       A1, [SP, #16]         ; [DPU_3_PIPE] |1206|  ; [ORIG 16-BIT INS]
    1344 00000338 9901              LDR       A2, [SP, #4]          ; [DPU_3_PIPE] |1206|  ; [ORIG 16-BIT INS]
    1345 0000033a 4350              MULS      A1, A1, A3            ; [DPU_3_PIPE] |1206|  ; [ORIG 16-BIT INS]
    1346 0000033c 4281              CMP       A2, A1                ; [DPU_3_PIPE] |1206|  ; [ORIG 16-BIT INS]
    1347 0000033e D308              BCC       ||$C$L31||            ; [DPU_3_PIPE] |1206|  ; [ORIG 16-BIT INS]
    1348                            ; BRANCHCC OCCURS {||$C$L31||}   ; [] |1206| 
    1349                    ;* --------------------------------------------------------------------------*
    1350 00000340 9A00              LDR       A3, [SP, #0]          ; [DPU_3_PIPE] |1206|  ; [ORIG 16-BIT INS]
    1351 00000342 9804              LDR       A1, [SP, #16]         ; [DPU_3_PIPE] |1206|  ; [ORIG 16-BIT INS]
    1352 00000344 9B04              LDR       A4, [SP, #16]         ; [DPU_3_PIPE] |1206|  ; [ORIG 16-BIT INS]
    1353 00000346 9900              LDR       A2, [SP, #0]          ; [DPU_3_PIPE] |1206|  ; [ORIG 16-BIT INS]
    1354 00000348 4350              MULS      A1, A1, A3            ; [DPU_3_PIPE] |1206|  ; [ORIG 16-BIT INS]
    1355 0000034a F0F3FBB0          UDIV      A1, A1, A4            ; [DPU_3_PIPE] |1206|  ; [KEEP 32-BIT INS]
    1356 0000034e 4281              CMP       A2, A1                ; [DPU_3_PIPE] |1206|  ; [ORIG 16-BIT INS]
    1357 00000350 D0E9              BEQ       ||$C$L29||            ; [DPU_3_PIPE] |1206|  ; [ORIG 16-BIT INS]
    1358                            ; BRANCHCC OCCURS {||$C$L29||}   ; [] |1206| 
    1359                    ;* --------------------------------------------------------------------------*
    1360 00000352           ||$C$L31||:    
    1361                            .dwpsn  file "../Drivers/uartstdio.c",line 1216,column 21,is_stmt,isa 1
    1362 00000352 9805              LDR       A1, [SP, #20]         ; [DPU_3_PIPE] |1216|  ; [ORIG 16-BIT INS]
    1363 00000354 B110              CBZ       A1, ||$C$L32||        ; []  ; [ORIG 16-BIT INS]
    1364                            ; BRANCHCC OCCURS {||$C$L32||}   ; [] |1216| 
    1365                    ;* --------------------------------------------------------------------------*
    1366                            .dwpsn  file "../Drivers/uartstdio.c",line 1218,column 25,is_stmt,isa 1
TI ARM Assembler PC v5.1.7 Thu Oct 30 20:25:15 2014

Tools Copyright (c) 1996-2014 Texas Instruments Incorporated
uartstdio.asm                                                        PAGE   26

    1367 00000356 9803              LDR       A1, [SP, #12]         ; [DPU_3_PIPE] |1218|  ; [ORIG 16-BIT INS]
    1368 00000358 1E40              SUBS      A1, A1, #1            ; [DPU_3_PIPE] |1218|  ; [ORIG 16-BIT INS]
    1369 0000035a 9003              STR       A1, [SP, #12]         ; [DPU_3_PIPE] |1218|  ; [ORIG 16-BIT INS]
    1370                    ;* --------------------------------------------------------------------------*
    1371 0000035c           ||$C$L32||:    
    1372                            .dwpsn  file "../Drivers/uartstdio.c",line 1225,column 21,is_stmt,isa 1
    1373 0000035c 9805              LDR       A1, [SP, #20]         ; [DPU_3_PIPE] |1225|  ; [ORIG 16-BIT INS]
    1374 0000035e B158              CBZ       A1, ||$C$L33||        ; []  ; [ORIG 16-BIT INS]
    1375                            ; BRANCHCC OCCURS {||$C$L33||}   ; [] |1225| 
    1376                    ;* --------------------------------------------------------------------------*
    1377 00000360 002CF89D          LDRB      A1, [SP, #44]         ; [DPU_3_PIPE] |1225|  ; [KEEP 32-BIT INS]
    1378 00000364 2830              CMP       A1, #48               ; [DPU_3_PIPE] |1225|  ; [ORIG 16-BIT INS]
    1379 00000366 D107              BNE       ||$C$L33||            ; [DPU_3_PIPE] |1225|  ; [ORIG 16-BIT INS]
    1380                            ; BRANCHCC OCCURS {||$C$L33||}   ; [] |1225| 
    1381                    ;* --------------------------------------------------------------------------*
    1382                            .dwpsn  file "../Drivers/uartstdio.c",line 1230,column 25,is_stmt,isa 1
    1383 00000368 9802              LDR       A1, [SP, #8]          ; [DPU_3_PIPE] |1230|  ; [ORIG 16-BIT INS]
    1384 0000036a 212D              MOVS      A2, #45               ; [DPU_3_PIPE] |1230|  ; [ORIG 16-BIT INS]
    1385 0000036c 1C42              ADDS      A3, A1, #1            ; [DPU_3_PIPE] |1230|  ; [ORIG 16-BIT INS]
    1386 0000036e 9202              STR       A3, [SP, #8]          ; [DPU_3_PIPE] |1230|  ; [ORIG 16-BIT INS]
    1387 00000370 4468              ADD       A1, A1, SP            ; [DPU_3_PIPE] |1230|  ; [ORIG 16-BIT INS]
    1388 00000372 7701              STRB      A2, [A1, #28]         ; [DPU_3_PIPE] |1230|  ; [ORIG 16-BIT INS]
    1389                            .dwpsn  file "../Drivers/uartstdio.c",line 1236,column 25,is_stmt,isa 1
    1390 00000374 2000              MOVS      A1, #0                ; [DPU_3_PIPE] |1236|  ; [ORIG 16-BIT INS]
    1391 00000376 9005              STR       A1, [SP, #20]         ; [DPU_3_PIPE] |1236|  ; [ORIG 16-BIT INS]
    1392                    ;* --------------------------------------------------------------------------*
    1393 00000378           ||$C$L33||:    
    1394                            .dwpsn  file "../Drivers/uartstdio.c",line 1243,column 21,is_stmt,isa 1
    1395 00000378 9803              LDR       A1, [SP, #12]         ; [DPU_3_PIPE] |1243|  ; [ORIG 16-BIT INS]
    1396 0000037a 2801              CMP       A1, #1                ; [DPU_3_PIPE] |1243|  ; [ORIG 16-BIT INS]
    1397 0000037c D914              BLS       ||$C$L35||            ; [DPU_3_PIPE] |1243|  ; [ORIG 16-BIT INS]
    1398                            ; BRANCHCC OCCURS {||$C$L35||}   ; [] |1243| 
    1399                    ;* --------------------------------------------------------------------------*
    1400 0000037e 9803              LDR       A1, [SP, #12]         ; [DPU_3_PIPE] |1243|  ; [ORIG 16-BIT INS]
    1401 00000380 2810              CMP       A1, #16               ; [DPU_3_PIPE] |1243|  ; [ORIG 16-BIT INS]
    1402 00000382 D211              BCS       ||$C$L35||            ; [DPU_3_PIPE] |1243|  ; [ORIG 16-BIT INS]
    1403                            ; BRANCHCC OCCURS {||$C$L35||}   ; [] |1243| 
    1404                    ;* --------------------------------------------------------------------------*
    1405                            .dwpsn  file "../Drivers/uartstdio.c",line 1245,column 29,is_stmt,isa 1
    1406 00000384 9803              LDR       A1, [SP, #12]         ; [DPU_3_PIPE] |1245|  ; [ORIG 16-BIT INS]
    1407 00000386 1E40              SUBS      A1, A1, #1            ; [DPU_3_PIPE] |1245|  ; [ORIG 16-BIT INS]
    1408 00000388 9003              STR       A1, [SP, #12]         ; [DPU_3_PIPE] |1245|  ; [ORIG 16-BIT INS]
    1409 0000038a 9803              LDR       A1, [SP, #12]         ; [DPU_3_PIPE] |1245|  ; [ORIG 16-BIT INS]
    1410 0000038c B160              CBZ       A1, ||$C$L35||        ; []  ; [ORIG 16-BIT INS]
    1411                            ; BRANCHCC OCCURS {||$C$L35||}   ; [] |1245| 
    1412                    ;* --------------------------------------------------------------------------*
    1413                    ;*   BEGIN LOOP ||$C$L34||
    1414                    ;*
    1415                    ;*   Loop source line                : 1245
    1416                    ;*   Loop closing brace source line  : 1248
    1417                    ;*   Known Minimum Trip Count        : 1
    1418                    ;*   Known Maximum Trip Count        : 4294967295
    1419                    ;*   Known Max Trip Count Factor     : 1
    1420                    ;* --------------------------------------------------------------------------*
    1421 0000038e           ||$C$L34||:    
TI ARM Assembler PC v5.1.7 Thu Oct 30 20:25:15 2014

Tools Copyright (c) 1996-2014 Texas Instruments Incorporated
uartstdio.asm                                                        PAGE   27

    1422                            .dwpsn  file "../Drivers/uartstdio.c",line 1247,column 29,is_stmt,isa 1
    1423 0000038e 9802              LDR       A1, [SP, #8]          ; [DPU_3_PIPE] |1247|  ; [ORIG 16-BIT INS]
    1424 00000390 102CF89D          LDRB      A2, [SP, #44]         ; [DPU_3_PIPE] |1247|  ; [KEEP 32-BIT INS]
    1425 00000394 1C42              ADDS      A3, A1, #1            ; [DPU_3_PIPE] |1247|  ; [ORIG 16-BIT INS]
    1426 00000396 9202              STR       A3, [SP, #8]          ; [DPU_3_PIPE] |1247|  ; [ORIG 16-BIT INS]
    1427 00000398 4468              ADD       A1, A1, SP            ; [DPU_3_PIPE] |1247|  ; [ORIG 16-BIT INS]
    1428 0000039a 7701              STRB      A2, [A1, #28]         ; [DPU_3_PIPE] |1247|  ; [ORIG 16-BIT INS]
    1429                            .dwpsn  file "../Drivers/uartstdio.c",line 1245,column 49,is_stmt,isa 1
    1430 0000039c 9803              LDR       A1, [SP, #12]         ; [DPU_3_PIPE] |1245|  ; [ORIG 16-BIT INS]
    1431 0000039e 1E40              SUBS      A1, A1, #1            ; [DPU_3_PIPE] |1245|  ; [ORIG 16-BIT INS]
    1432 000003a0 9003              STR       A1, [SP, #12]         ; [DPU_3_PIPE] |1245|  ; [ORIG 16-BIT INS]
    1433 000003a2 9803              LDR       A1, [SP, #12]         ; [DPU_3_PIPE] |1245|  ; [ORIG 16-BIT INS]
    1434 000003a4 2800              CMP       A1, #0                ; [DPU_3_PIPE] |1245|  ; [ORIG 16-BIT INS]
    1435 000003a6 D1F2              BNE       ||$C$L34||            ; [DPU_3_PIPE] |1245|  ; [ORIG 16-BIT INS]
    1436                            ; BRANCHCC OCCURS {||$C$L34||}   ; [] |1245| 
    1437                    ;* --------------------------------------------------------------------------*
    1438 000003a8           ||$C$L35||:    
    1439                            .dwpsn  file "../Drivers/uartstdio.c",line 1255,column 21,is_stmt,isa 1
    1440 000003a8 9805              LDR       A1, [SP, #20]         ; [DPU_3_PIPE] |1255|  ; [ORIG 16-BIT INS]
    1441 000003aa B128              CBZ       A1, ||$C$L36||        ; []  ; [ORIG 16-BIT INS]
    1442                            ; BRANCHCC OCCURS {||$C$L36||}   ; [] |1255| 
    1443                    ;* --------------------------------------------------------------------------*
    1444                            .dwpsn  file "../Drivers/uartstdio.c",line 1260,column 25,is_stmt,isa 1
    1445 000003ac 9802              LDR       A1, [SP, #8]          ; [DPU_3_PIPE] |1260|  ; [ORIG 16-BIT INS]
    1446 000003ae 212D              MOVS      A2, #45               ; [DPU_3_PIPE] |1260|  ; [ORIG 16-BIT INS]
    1447 000003b0 1C42              ADDS      A3, A1, #1            ; [DPU_3_PIPE] |1260|  ; [ORIG 16-BIT INS]
    1448 000003b2 9202              STR       A3, [SP, #8]          ; [DPU_3_PIPE] |1260|  ; [ORIG 16-BIT INS]
    1449 000003b4 4468              ADD       A1, A1, SP            ; [DPU_3_PIPE] |1260|  ; [ORIG 16-BIT INS]
    1450 000003b6 7701              STRB      A2, [A1, #28]         ; [DPU_3_PIPE] |1260|  ; [ORIG 16-BIT INS]
    1451                    ;* --------------------------------------------------------------------------*
    1452 000003b8           ||$C$L36||:    
    1453                            .dwpsn  file "../Drivers/uartstdio.c",line 1266,column 21,is_stmt,isa 1
    1454 000003b8 9800              LDR       A1, [SP, #0]          ; [DPU_3_PIPE] |1266|  ; [ORIG 16-BIT INS]
    1455 000003ba B1B0              CBZ       A1, ||$C$L38||        ; []  ; [ORIG 16-BIT INS]
    1456                            ; BRANCHCC OCCURS {||$C$L38||}   ; [] |1266| 
    1457                    ;* --------------------------------------------------------------------------*
    1458                    ;*   BEGIN LOOP ||$C$L37||
    1459                    ;*
    1460                    ;*   Loop source line                : 1266
    1461                    ;*   Loop closing brace source line  : 1269
    1462                    ;*   Known Minimum Trip Count        : 1
    1463                    ;*   Known Maximum Trip Count        : 4294967295
    1464                    ;*   Known Max Trip Count Factor     : 1
    1465                    ;* --------------------------------------------------------------------------*
    1466 000003bc           ||$C$L37||:    
    1467                            .dwpsn  file "../Drivers/uartstdio.c",line 1268,column 25,is_stmt,isa 1
    1468 000003bc 9800              LDR       A1, [SP, #0]          ; [DPU_3_PIPE] |1268|  ; [ORIG 16-BIT INS]
    1469 000003be 9A01              LDR       A3, [SP, #4]          ; [DPU_3_PIPE] |1268|  ; [ORIG 16-BIT INS]
    1470 000003c0 9904              LDR       A2, [SP, #16]         ; [DPU_3_PIPE] |1268|  ; [ORIG 16-BIT INS]
    1471 000003c2 F0F0FBB2          UDIV      A1, A3, A1            ; [DPU_3_PIPE] |1268|  ; [KEEP 32-BIT INS]
    1472                    $C$DW$92        .dwtag  DW_TAG_TI_branch
    1473                            .dwattr $C$DW$92, DW_AT_low_pc(0x00)
    1474                            .dwattr $C$DW$92, DW_AT_name("U$MOD")
    1475                            .dwattr $C$DW$92, DW_AT_TI_call
    1476 000003c6 FFFEF7FF!         BL        __aeabi_uidivmod      ; [DPU_3_PIPE] |1268|  ; [KEEP 32-BIT INS]
TI ARM Assembler PC v5.1.7 Thu Oct 30 20:25:15 2014

Tools Copyright (c) 1996-2014 Texas Instruments Incorporated
uartstdio.asm                                                        PAGE   28

    1477                            ; CALL OCCURS {__aeabi_uidivmod }  ; [] |1268| 
    1478 000003ca 4836              LDR       A1, $C$CON5           ; [DPU_3_PIPE] |1268|  ; [ORIG 16-BIT INS]
    1479 000003cc 6802              LDR       A3, [A1, #0]          ; [DPU_3_PIPE] |1268|  ; [ORIG 16-BIT INS]
    1480 000003ce 9802              LDR       A1, [SP, #8]          ; [DPU_3_PIPE] |1268|  ; [ORIG 16-BIT INS]
    1481 000003d0 5C89              LDRB      A2, [A2, +A3]         ; [DPU_3_PIPE] |1268|  ; [ORIG 16-BIT INS]
    1482 000003d2 1C42              ADDS      A3, A1, #1            ; [DPU_3_PIPE] |1268|  ; [ORIG 16-BIT INS]
    1483 000003d4 9202              STR       A3, [SP, #8]          ; [DPU_3_PIPE] |1268|  ; [ORIG 16-BIT INS]
    1484 000003d6 4468              ADD       A1, A1, SP            ; [DPU_3_PIPE] |1268|  ; [ORIG 16-BIT INS]
    1485 000003d8 7701              STRB      A2, [A1, #28]         ; [DPU_3_PIPE] |1268|  ; [ORIG 16-BIT INS]
    1486                            .dwpsn  file "../Drivers/uartstdio.c",line 1266,column 34,is_stmt,isa 1
    1487 000003da 9804              LDR       A1, [SP, #16]         ; [DPU_3_PIPE] |1266|  ; [ORIG 16-BIT INS]
    1488 000003dc 9900              LDR       A2, [SP, #0]          ; [DPU_3_PIPE] |1266|  ; [ORIG 16-BIT INS]
    1489 000003de F0F0FBB1          UDIV      A1, A2, A1            ; [DPU_3_PIPE] |1266|  ; [KEEP 32-BIT INS]
    1490 000003e2 9000              STR       A1, [SP, #0]          ; [DPU_3_PIPE] |1266|  ; [ORIG 16-BIT INS]
    1491 000003e4 9800              LDR       A1, [SP, #0]          ; [DPU_3_PIPE] |1266|  ; [ORIG 16-BIT INS]
    1492 000003e6 2800              CMP       A1, #0                ; [DPU_3_PIPE] |1266|  ; [ORIG 16-BIT INS]
    1493 000003e8 D1E8              BNE       ||$C$L37||            ; [DPU_3_PIPE] |1266|  ; [ORIG 16-BIT INS]
    1494                            ; BRANCHCC OCCURS {||$C$L37||}   ; [] |1266| 
    1495                    ;* --------------------------------------------------------------------------*
    1496 000003ea           ||$C$L38||:    
    1497                            .dwpsn  file "../Drivers/uartstdio.c",line 1274,column 21,is_stmt,isa 1
    1498 000003ea 9902              LDR       A2, [SP, #8]          ; [DPU_3_PIPE] |1274|  ; [ORIG 16-BIT INS]
    1499 000003ec A807              ADD       A1, SP, #28           ; [DPU_3_PIPE] |1274|  ; [ORIG 16-BIT INS]
    1500                    $C$DW$93        .dwtag  DW_TAG_TI_branch
    1501                            .dwattr $C$DW$93, DW_AT_low_pc(0x00)
    1502                            .dwattr $C$DW$93, DW_AT_name("UARTwrite")
    1503                            .dwattr $C$DW$93, DW_AT_TI_call
    1504 000003ee FE40F7FF          BL        UARTwrite             ; [DPU_3_PIPE] |1274|  ; [KEEP 32-BIT INS]
    1505                            ; CALL OCCURS {UARTwrite }       ; [] |1274| 
    1506                            .dwpsn  file "../Drivers/uartstdio.c",line 1279,column 21,is_stmt,isa 1
    1507 000003f2 E047              B         ||$C$L44||            ; [DPU_3_PIPE] |1279|  ; [ORIG 16-BIT INS]
    1508                            ; BRANCH OCCURS {||$C$L44||}     ; [] |1279| 
    1509                    ;* --------------------------------------------------------------------------*
    1510 000003f4           ||$C$L39||:    
    1511                            .dwpsn  file "../Drivers/uartstdio.c",line 1290,column 21,is_stmt,isa 1
    1512 000003f4 6838              LDR       A1, [V4, #0]          ; [DPU_3_PIPE] |1290|  ; [ORIG 16-BIT INS]
    1513 000003f6 2101              MOVS      A2, #1                ; [DPU_3_PIPE] |1290|  ; [ORIG 16-BIT INS]
    1514 000003f8 1E40              SUBS      A1, A1, #1            ; [DPU_3_PIPE] |1290|  ; [ORIG 16-BIT INS]
    1515                    $C$DW$94        .dwtag  DW_TAG_TI_branch
    1516                            .dwattr $C$DW$94, DW_AT_low_pc(0x00)
    1517                            .dwattr $C$DW$94, DW_AT_name("UARTwrite")
    1518                            .dwattr $C$DW$94, DW_AT_TI_call
    1519 000003fa FE3AF7FF          BL        UARTwrite             ; [DPU_3_PIPE] |1290|  ; [KEEP 32-BIT INS]
    1520                            ; CALL OCCURS {UARTwrite }       ; [] |1290| 
    1521                            .dwpsn  file "../Drivers/uartstdio.c",line 1295,column 21,is_stmt,isa 1
    1522 000003fe E041              B         ||$C$L44||            ; [DPU_3_PIPE] |1295|  ; [ORIG 16-BIT INS]
    1523                            ; BRANCH OCCURS {||$C$L44||}     ; [] |1295| 
    1524                    ;* --------------------------------------------------------------------------*
    1525 00000400           ||$C$L40||:    
    1526                            .dwpsn  file "../Drivers/uartstdio.c",line 1306,column 21,is_stmt,isa 1
    1527 00000400 A026              ADR       A1, $C$SL5            ; [DPU_3_PIPE] |1306|  ; [ORIG 16-BIT INS]
    1528 00000402 2105              MOVS      A2, #5                ; [DPU_3_PIPE] |1306|  ; [ORIG 16-BIT INS]
    1529                    $C$DW$95        .dwtag  DW_TAG_TI_branch
    1530                            .dwattr $C$DW$95, DW_AT_low_pc(0x00)
    1531                            .dwattr $C$DW$95, DW_AT_name("UARTwrite")
TI ARM Assembler PC v5.1.7 Thu Oct 30 20:25:15 2014

Tools Copyright (c) 1996-2014 Texas Instruments Incorporated
uartstdio.asm                                                        PAGE   29

    1532                            .dwattr $C$DW$95, DW_AT_TI_call
    1533 00000404 FE35F7FF          BL        UARTwrite             ; [DPU_3_PIPE] |1306|  ; [KEEP 32-BIT INS]
    1534                            ; CALL OCCURS {UARTwrite }       ; [] |1306| 
    1535                            .dwpsn  file "../Drivers/uartstdio.c",line 1311,column 21,is_stmt,isa 1
    1536 00000408 E03C              B         ||$C$L44||            ; [DPU_3_PIPE] |1311|  ; [ORIG 16-BIT INS]
    1537                            ; BRANCH OCCURS {||$C$L44||}     ; [] |1311| 
    1538                    ;* --------------------------------------------------------------------------*
    1539                    ;* --------------------------------------------------------------------------*
    1540                    ;*   BEGIN LOOP ||$C$L41||
    1541                    ;* --------------------------------------------------------------------------*
    1542 0000040a           ||$C$L41||:    
    1543                            .dwpsn  file "../Drivers/uartstdio.c",line 988,column 13,is_stmt,isa 1
    1544 0000040a 6839              LDR       A2, [V4, #0]          ; [DPU_3_PIPE] |988|  ; [ORIG 16-BIT INS]
    1545 0000040c 0B01F811          LDRB      A1, [A2], #1          ; [DPU_3_PIPE] |988|  ; [KEEP 32-BIT INS]
    1546 00000410 2869              CMP       A1, #105              ; [DPU_3_PIPE] |988|  ; [ORIG 16-BIT INS]
    1547 00000412 6039              STR       A2, [V4, #0]          ; [DPU_3_PIPE] |988|  ; [ORIG 16-BIT INS]
    1548 00000414 DC11              BGT       ||$C$L42||            ; [DPU_3_PIPE] |988|  ; [ORIG 16-BIT INS]
    1549                            ; BRANCHCC OCCURS {||$C$L42||}   ; [] |988| 
    1550                    ;* --------------------------------------------------------------------------*
    1551 00000416 2869              CMP       A1, #105              ; [DPU_3_PIPE] |988|  ; [ORIG 16-BIT INS]
    1552 00000418 AF14F43F          BEQ       ||$C$L19||            ; [DPU_3_PIPE] |988|  ; [KEEP 32-BIT INS]
    1553                            ; BRANCHCC OCCURS {||$C$L19||}   ; [] |988| 
    1554                    ;* --------------------------------------------------------------------------*
    1555 0000041c 3825              SUBS      A1, A1, #37           ; [DPU_3_PIPE] |988|  ; [ORIG 16-BIT INS]
    1556 0000041e D0E9              BEQ       ||$C$L39||            ; [DPU_3_PIPE] |988|  ; [ORIG 16-BIT INS]
    1557                            ; BRANCHCC OCCURS {||$C$L39||}   ; [] |988| 
    1558                    ;* --------------------------------------------------------------------------*
    1559 00000420 380B              SUBS      A1, A1, #11           ; [DPU_3_PIPE] |988|  ; [ORIG 16-BIT INS]
    1560 00000422 2809              CMP       A1, #9                ; [DPU_3_PIPE] |988|  ; [ORIG 16-BIT INS]
    1561 00000424 D916              BLS       ||$C$L43||            ; [DPU_3_PIPE] |988|  ; [ORIG 16-BIT INS]
    1562                            ; BRANCHCC OCCURS {||$C$L43||}   ; [] |988| 
    1563                    ;* --------------------------------------------------------------------------*
    1564 00000426 3828              SUBS      A1, A1, #40           ; [DPU_3_PIPE] |988|  ; [ORIG 16-BIT INS]
    1565 00000428 AF6AF43F          BEQ       ||$C$L27||            ; [DPU_3_PIPE] |988|  ; [KEEP 32-BIT INS]
    1566                            ; BRANCHCC OCCURS {||$C$L27||}   ; [] |988| 
    1567                    ;* --------------------------------------------------------------------------*
    1568 0000042c 380B              SUBS      A1, A1, #11           ; [DPU_3_PIPE] |988|  ; [ORIG 16-BIT INS]
    1569 0000042e AEFAF43F          BEQ       ||$C$L18||            ; [DPU_3_PIPE] |988|  ; [KEEP 32-BIT INS]
    1570                            ; BRANCHCC OCCURS {||$C$L18||}   ; [] |988| 
    1571                    ;* --------------------------------------------------------------------------*
    1572 00000432 1E40              SUBS      A1, A1, #1            ; [DPU_3_PIPE] |988|  ; [ORIG 16-BIT INS]
    1573 00000434 AF06F43F          BEQ       ||$C$L19||            ; [DPU_3_PIPE] |988|  ; [KEEP 32-BIT INS]
    1574                            ; BRANCHCC OCCURS {||$C$L19||}   ; [] |988| 
    1575                    ;* --------------------------------------------------------------------------*
    1576 00000438 E7E2              B         ||$C$L40||            ; [DPU_3_PIPE] |988|  ; [ORIG 16-BIT INS]
    1577                            ; BRANCH OCCURS {||$C$L40||}     ; [] |988| 
    1578                    ;* --------------------------------------------------------------------------*
    1579 0000043a           ||$C$L42||:    
    1580 0000043a 3870              SUBS      A1, A1, #112          ; [DPU_3_PIPE] |988|  ; [ORIG 16-BIT INS]
    1581 0000043c AF60F43F          BEQ       ||$C$L27||            ; [DPU_3_PIPE] |988|  ; [KEEP 32-BIT INS]
    1582                            ; BRANCHCC OCCURS {||$C$L27||}   ; [] |988| 
    1583                    ;* --------------------------------------------------------------------------*
    1584 00000440 1EC0              SUBS      A1, A1, #3            ; [DPU_3_PIPE] |988|  ; [ORIG 16-BIT INS]
    1585 00000442 AF19F43F          BEQ       ||$C$L22||            ; [DPU_3_PIPE] |988|  ; [KEEP 32-BIT INS]
    1586                            ; BRANCHCC OCCURS {||$C$L22||}   ; [] |988| 
TI ARM Assembler PC v5.1.7 Thu Oct 30 20:25:15 2014

Tools Copyright (c) 1996-2014 Texas Instruments Incorporated
uartstdio.asm                                                        PAGE   30

    1587                    ;* --------------------------------------------------------------------------*
    1588 00000446 1E80              SUBS      A1, A1, #2            ; [DPU_3_PIPE] |988|  ; [ORIG 16-BIT INS]
    1589 00000448 AF49F43F          BEQ       ||$C$L26||            ; [DPU_3_PIPE] |988|  ; [KEEP 32-BIT INS]
    1590                            ; BRANCHCC OCCURS {||$C$L26||}   ; [] |988| 
    1591                    ;* --------------------------------------------------------------------------*
    1592 0000044c 1EC0              SUBS      A1, A1, #3            ; [DPU_3_PIPE] |988|  ; [ORIG 16-BIT INS]
    1593 0000044e AF57F43F          BEQ       ||$C$L27||            ; [DPU_3_PIPE] |988|  ; [KEEP 32-BIT INS]
    1594                            ; BRANCHCC OCCURS {||$C$L27||}   ; [] |988| 
    1595                    ;* --------------------------------------------------------------------------*
    1596 00000452 E7D5              B         ||$C$L40||            ; [DPU_3_PIPE] |988|  ; [ORIG 16-BIT INS]
    1597                            ; BRANCH OCCURS {||$C$L40||}     ; [] |988| 
    1598                    ;* --------------------------------------------------------------------------*
    1599 00000454           ||$C$L43||:    
    1600 00000454 A101              ADR       A2, ||$C$SW1||        ; [DPU_3_PIPE] |988|  ; [ORIG 16-BIT INS]
    1601 00000456 0020F851          LDR       A1, [A2, +A1, LSL #2] ; [DPU_3_PIPE] |988|  ; [KEEP 32-BIT INS]
    1602 0000045a 4687              MOV       PC, A1                ; [DPU_3_PIPE] |988|  ; [ORIG 16-BIT INS]
    1603                            ; BRANCH OCCURS                  ; [] |988| 
    1604 0000045c 00000000! ||$C$SW1||:     .word   ||$C$L16||      ; 48
    1605 00000460 00000000!         .word   ||$C$L16||      ; 49
    1606 00000464 00000000!         .word   ||$C$L16||      ; 50
    1607 00000468 00000000!         .word   ||$C$L16||      ; 51
    1608 0000046c 00000000!         .word   ||$C$L16||      ; 52
    1609 00000470 00000000!         .word   ||$C$L16||      ; 53
    1610 00000474 00000000!         .word   ||$C$L16||      ; 54
    1611 00000478 00000000!         .word   ||$C$L16||      ; 55
    1612 0000047c 00000000!         .word   ||$C$L16||      ; 56
    1613 00000480 00000000!         .word   ||$C$L16||      ; 57
    1614                    ;* --------------------------------------------------------------------------*
    1615                    ;*   BEGIN LOOP ||$C$L44||
    1616                    ;* --------------------------------------------------------------------------*
    1617 00000484           ||$C$L44||:    
    1618                            .dwpsn  file "../Drivers/uartstdio.c",line 1315,column 5,is_stmt,isa 1
    1619 00000484 6838              LDR       A1, [V4, #0]          ; [DPU_3_PIPE] |1315|  ; [ORIG 16-BIT INS]
    1620 00000486 7800              LDRB      A1, [A1, #0]          ; [DPU_3_PIPE] |1315|  ; [ORIG 16-BIT INS]
    1621 00000488 2800              CMP       A1, #0                ; [DPU_3_PIPE] |1315|  ; [ORIG 16-BIT INS]
    1622 0000048a AE8FF47F          BNE       ||$C$L11||            ; [DPU_3_PIPE] |1315|  ; [KEEP 32-BIT INS]
    1623                            ; BRANCHCC OCCURS {||$C$L11||}   ; [] |1315| 
    1624                    ;* --------------------------------------------------------------------------*
    1625                            .dwpsn  file "../Drivers/uartstdio.c",line 1320,column 5,is_stmt,isa 1
    1626                            .dwpsn  file "../Drivers/uartstdio.c",line 1321,column 1,is_stmt,isa 1
    1627 0000048e B00E              ADD       SP, SP, #56           ; [DPU_3_PIPE]  ; [ORIG 16-BIT INS]
    1628                            .dwcfi  cfa_offset, 24
    1629 00000490 4080E8BD          POP       {V4, LR}              ; [DPU_3_PIPE]  ; [KEEP 32-BIT INS]
    1630                            .dwcfi  cfa_offset, 16
    1631                            .dwcfi  restore_reg, 14
    1632                            .dwcfi  restore_reg, 7
    1633 00000494 B004              ADD       SP, SP, #16           ; [DPU_3_PIPE]  ; [ORIG 16-BIT INS]
    1634                            .dwcfi  cfa_offset, 0
    1635                    $C$DW$96        .dwtag  DW_TAG_TI_branch
    1636                            .dwattr $C$DW$96, DW_AT_low_pc(0x00)
    1637                            .dwattr $C$DW$96, DW_AT_TI_return
    1638 00000496 4770              BX        LR                    ; [DPU_3_PIPE]  ; [ORIG 16-BIT INS]
    1639                            ; BRANCH OCCURS                  ; [] 
    1640                            .dwattr $C$DW$73, DW_AT_TI_end_file("../Drivers/uartstdio.c")
    1641                            .dwattr $C$DW$73, DW_AT_TI_end_line(0x529)
TI ARM Assembler PC v5.1.7 Thu Oct 30 20:25:15 2014

Tools Copyright (c) 1996-2014 Texas Instruments Incorporated
uartstdio.asm                                                        PAGE   31

    1642                            .dwattr $C$DW$73, DW_AT_TI_end_column(0x01)
    1643                            .dwendentry
    1644                            .dwendtag $C$DW$73
    1645                    
    1646                    ;******************************************************************************
    1647                    ;* STRINGS                                                                    *
    1648                    ;******************************************************************************
    1649 00000498                   .sect   ".text"
    1650                            .align  4
    1651 00000498 20        ||$C$SL4||:     .string " ",0
         00000499 00       
    1652                            .align  4
    1653 0000049c 45        ||$C$SL5||:     .string "ERROR",0
         0000049d 52       
         0000049e 52       
         0000049f 4F       
         000004a0 52       
         000004a1 00       
    1654                    ;******************************************************************************
    1655                    ;* CONSTANT TABLE                                                             *
    1656                    ;******************************************************************************
    1657 000004a2                   .sect   ".text"
    1658                            .align  4
    1659 000004a4 00000000! ||$C$CON5||:    .bits   g_pcHex,32
    1660                    ;******************************************************************************
    1661                    ;* STRINGS                                                                    *
    1662                    ;******************************************************************************
    1663 00000000                   .sect   ".const:.string"
    1664                            .align  4
    1665 00000000 30        ||$C$SL1||:     .string "0123456789abcdef",0
         00000001 31       
         00000002 32       
         00000003 33       
         00000004 34       
         00000005 35       
         00000006 36       
         00000007 37       
         00000008 38       
         00000009 39       
         0000000a 61       
         0000000b 62       
         0000000c 63       
         0000000d 64       
         0000000e 65       
         0000000f 66       
         00000010 00       
    1666                    ;*****************************************************************************
    1667                    ;* UNDEFINED EXTERNAL REFERENCES                                             *
    1668                    ;*****************************************************************************
    1669                            .global SysCtlPeripheralPresent
    1670                            .global SysCtlPeripheralEnable
    1671                            .global SysCtlClockGet
    1672                            .global UARTConfigSetExpClk
    1673                            .global UARTEnable
    1674                            .global UARTCharGet
TI ARM Assembler PC v5.1.7 Thu Oct 30 20:25:15 2014

Tools Copyright (c) 1996-2014 Texas Instruments Incorporated
uartstdio.asm                                                        PAGE   32

    1675                            .global UARTCharPut
    1676                            .global __aeabi_uidivmod
    1677                    
    1678                    ;******************************************************************************
    1679                    ;* BUILD ATTRIBUTES                                                           *
    1680                    ;******************************************************************************
    1681                            .battr "aeabi", Tag_File, 1, Tag_ABI_PCS_wchar_t(2)
    1682                            .battr "aeabi", Tag_File, 1, Tag_ABI_FP_rounding(0)
    1683                            .battr "aeabi", Tag_File, 1, Tag_ABI_FP_denormal(0)
    1684                            .battr "aeabi", Tag_File, 1, Tag_ABI_FP_exceptions(0)
    1685                            .battr "aeabi", Tag_File, 1, Tag_ABI_FP_number_model(1)
    1686                            .battr "aeabi", Tag_File, 1, Tag_ABI_enum_size(0)
    1687                            .battr "aeabi", Tag_File, 1, Tag_ABI_optimization_goals(5)
    1688                            .battr "aeabi", Tag_File, 1, Tag_ABI_FP_optimization_goals(0)
    1689                            .battr "TI", Tag_File, 1, Tag_Bitfield_layout(2)
    1690                            .battr "TI", Tag_File, 1, Tag_FP_interface(1)
    1691                    
    1692                    ;******************************************************************************
    1693                    ;* TYPE INFORMATION                                                           *
    1694                    ;******************************************************************************
    1695                    $C$DW$T$2       .dwtag  DW_TAG_unspecified_type
    1696                            .dwattr $C$DW$T$2, DW_AT_name("void")
    1697                    $C$DW$T$3       .dwtag  DW_TAG_pointer_type
    1698                            .dwattr $C$DW$T$3, DW_AT_type(*$C$DW$T$2)
    1699                            .dwattr $C$DW$T$3, DW_AT_address_class(0x20)
    1700                    $C$DW$T$4       .dwtag  DW_TAG_base_type
    1701                            .dwattr $C$DW$T$4, DW_AT_encoding(DW_ATE_boolean)
    1702                            .dwattr $C$DW$T$4, DW_AT_name("bool")
    1703                            .dwattr $C$DW$T$4, DW_AT_byte_size(0x01)
    1704                    $C$DW$T$5       .dwtag  DW_TAG_base_type
    1705                            .dwattr $C$DW$T$5, DW_AT_encoding(DW_ATE_signed_char)
    1706                            .dwattr $C$DW$T$5, DW_AT_name("signed char")
    1707                            .dwattr $C$DW$T$5, DW_AT_byte_size(0x01)
    1708                    $C$DW$T$6       .dwtag  DW_TAG_base_type
    1709                            .dwattr $C$DW$T$6, DW_AT_encoding(DW_ATE_unsigned_char)
    1710                            .dwattr $C$DW$T$6, DW_AT_name("unsigned char")
    1711                            .dwattr $C$DW$T$6, DW_AT_byte_size(0x01)
    1712                    $C$DW$T$34      .dwtag  DW_TAG_typedef, DW_AT_name("tBoolean")
    1713                            .dwattr $C$DW$T$34, DW_AT_type(*$C$DW$T$6)
    1714                            .dwattr $C$DW$T$34, DW_AT_language(DW_LANG_C)
    1715                            .dwattr $C$DW$T$34, DW_AT_decl_file("C:/TI_CodeComposer/StellarisWare-LM3S1968/inc/hw_types.h"
    1716                            .dwattr $C$DW$T$34, DW_AT_decl_line(0x30)
    1717                            .dwattr $C$DW$T$34, DW_AT_decl_column(0x17)
    1718                    $C$DW$T$7       .dwtag  DW_TAG_base_type
    1719                            .dwattr $C$DW$T$7, DW_AT_encoding(DW_ATE_signed_char)
    1720                            .dwattr $C$DW$T$7, DW_AT_name("wchar_t")
    1721                            .dwattr $C$DW$T$7, DW_AT_byte_size(0x02)
    1722                    $C$DW$T$8       .dwtag  DW_TAG_base_type
    1723                            .dwattr $C$DW$T$8, DW_AT_encoding(DW_ATE_signed)
    1724                            .dwattr $C$DW$T$8, DW_AT_name("short")
    1725                            .dwattr $C$DW$T$8, DW_AT_byte_size(0x02)
    1726                    $C$DW$T$9       .dwtag  DW_TAG_base_type
    1727                            .dwattr $C$DW$T$9, DW_AT_encoding(DW_ATE_unsigned)
    1728                            .dwattr $C$DW$T$9, DW_AT_name("unsigned short")
    1729                            .dwattr $C$DW$T$9, DW_AT_byte_size(0x02)
TI ARM Assembler PC v5.1.7 Thu Oct 30 20:25:15 2014

Tools Copyright (c) 1996-2014 Texas Instruments Incorporated
uartstdio.asm                                                        PAGE   33

    1730                    $C$DW$T$10      .dwtag  DW_TAG_base_type
    1731                            .dwattr $C$DW$T$10, DW_AT_encoding(DW_ATE_signed)
    1732                            .dwattr $C$DW$T$10, DW_AT_name("int")
    1733                            .dwattr $C$DW$T$10, DW_AT_byte_size(0x04)
    1734                    $C$DW$T$11      .dwtag  DW_TAG_base_type
    1735                            .dwattr $C$DW$T$11, DW_AT_encoding(DW_ATE_unsigned)
    1736                            .dwattr $C$DW$T$11, DW_AT_name("unsigned int")
    1737                            .dwattr $C$DW$T$11, DW_AT_byte_size(0x04)
    1738                    $C$DW$T$12      .dwtag  DW_TAG_base_type
    1739                            .dwattr $C$DW$T$12, DW_AT_encoding(DW_ATE_signed)
    1740                            .dwattr $C$DW$T$12, DW_AT_name("long")
    1741                            .dwattr $C$DW$T$12, DW_AT_byte_size(0x04)
    1742                    $C$DW$T$13      .dwtag  DW_TAG_base_type
    1743                            .dwattr $C$DW$T$13, DW_AT_encoding(DW_ATE_unsigned)
    1744                            .dwattr $C$DW$T$13, DW_AT_name("unsigned long")
    1745                            .dwattr $C$DW$T$13, DW_AT_byte_size(0x04)
    1746                    $C$DW$T$45      .dwtag  DW_TAG_const_type
    1747                            .dwattr $C$DW$T$45, DW_AT_type(*$C$DW$T$13)
    1748                    
    1749                    $C$DW$T$46      .dwtag  DW_TAG_array_type
    1750                            .dwattr $C$DW$T$46, DW_AT_type(*$C$DW$T$45)
    1751                            .dwattr $C$DW$T$46, DW_AT_language(DW_LANG_C)
    1752                            .dwattr $C$DW$T$46, DW_AT_byte_size(0x0c)
    1753                    $C$DW$97        .dwtag  DW_TAG_subrange_type
    1754                            .dwattr $C$DW$97, DW_AT_upper_bound(0x02)
    1755                            .dwendtag $C$DW$T$46
    1756                    
    1757                    $C$DW$T$14      .dwtag  DW_TAG_base_type
    1758                            .dwattr $C$DW$T$14, DW_AT_encoding(DW_ATE_signed)
    1759                            .dwattr $C$DW$T$14, DW_AT_name("long long")
    1760                            .dwattr $C$DW$T$14, DW_AT_byte_size(0x08)
    1761                    $C$DW$T$15      .dwtag  DW_TAG_base_type
    1762                            .dwattr $C$DW$T$15, DW_AT_encoding(DW_ATE_unsigned)
    1763                            .dwattr $C$DW$T$15, DW_AT_name("unsigned long long")
    1764                            .dwattr $C$DW$T$15, DW_AT_byte_size(0x08)
    1765                    $C$DW$T$16      .dwtag  DW_TAG_base_type
    1766                            .dwattr $C$DW$T$16, DW_AT_encoding(DW_ATE_float)
    1767                            .dwattr $C$DW$T$16, DW_AT_name("float")
    1768                            .dwattr $C$DW$T$16, DW_AT_byte_size(0x04)
    1769                    $C$DW$T$17      .dwtag  DW_TAG_base_type
    1770                            .dwattr $C$DW$T$17, DW_AT_encoding(DW_ATE_float)
    1771                            .dwattr $C$DW$T$17, DW_AT_name("double")
    1772                            .dwattr $C$DW$T$17, DW_AT_byte_size(0x08)
    1773                    $C$DW$T$18      .dwtag  DW_TAG_base_type
    1774                            .dwattr $C$DW$T$18, DW_AT_encoding(DW_ATE_float)
    1775                            .dwattr $C$DW$T$18, DW_AT_name("long double")
    1776                            .dwattr $C$DW$T$18, DW_AT_byte_size(0x08)
    1777                    $C$DW$T$30      .dwtag  DW_TAG_const_type
    1778                            .dwattr $C$DW$T$30, DW_AT_type(*$C$DW$T$6)
    1779                    $C$DW$T$31      .dwtag  DW_TAG_pointer_type
    1780                            .dwattr $C$DW$T$31, DW_AT_type(*$C$DW$T$30)
    1781                            .dwattr $C$DW$T$31, DW_AT_address_class(0x20)
    1782                    $C$DW$T$49      .dwtag  DW_TAG_const_type
    1783                            .dwattr $C$DW$T$49, DW_AT_type(*$C$DW$T$31)
    1784                    $C$DW$T$39      .dwtag  DW_TAG_pointer_type
TI ARM Assembler PC v5.1.7 Thu Oct 30 20:25:15 2014

Tools Copyright (c) 1996-2014 Texas Instruments Incorporated
uartstdio.asm                                                        PAGE   34

    1785                            .dwattr $C$DW$T$39, DW_AT_type(*$C$DW$T$6)
    1786                            .dwattr $C$DW$T$39, DW_AT_address_class(0x20)
    1787                    
    1788                    $C$DW$T$56      .dwtag  DW_TAG_array_type
    1789                            .dwattr $C$DW$T$56, DW_AT_type(*$C$DW$T$6)
    1790                            .dwattr $C$DW$T$56, DW_AT_language(DW_LANG_C)
    1791                            .dwattr $C$DW$T$56, DW_AT_byte_size(0x10)
    1792                    $C$DW$98        .dwtag  DW_TAG_subrange_type
    1793                            .dwattr $C$DW$98, DW_AT_upper_bound(0x0f)
    1794                            .dwendtag $C$DW$T$56
    1795                    
    1796                    
    1797                    $C$DW$T$19      .dwtag  DW_TAG_structure_type
    1798                            .dwattr $C$DW$T$19, DW_AT_name("__va_list")
    1799                            .dwattr $C$DW$T$19, DW_AT_byte_size(0x04)
    1800                    $C$DW$99        .dwtag  DW_TAG_member
    1801                            .dwattr $C$DW$99, DW_AT_type(*$C$DW$T$3)
    1802                            .dwattr $C$DW$99, DW_AT_name("__ap")
    1803                            .dwattr $C$DW$99, DW_AT_TI_symbol_name("__ap")
    1804                            .dwattr $C$DW$99, DW_AT_data_member_location[DW_OP_plus_uconst 0x0]
    1805                            .dwattr $C$DW$99, DW_AT_accessibility(DW_ACCESS_public)
    1806                            .dwattr $C$DW$99, DW_AT_decl_file("C:/TI_CodeComposer/ccsv6/tools/compiler/arm_5.1.7/include/s
    1807                            .dwattr $C$DW$99, DW_AT_decl_line(0x32)
    1808                            .dwattr $C$DW$99, DW_AT_decl_column(0x0c)
    1809                            .dwendtag $C$DW$T$19
    1810                    
    1811                            .dwattr $C$DW$T$19, DW_AT_decl_file("C:/TI_CodeComposer/ccsv6/tools/compiler/arm_5.1.7/include
    1812                            .dwattr $C$DW$T$19, DW_AT_decl_line(0x31)
    1813                            .dwattr $C$DW$T$19, DW_AT_decl_column(0x10)
    1814                    $C$DW$T$63      .dwtag  DW_TAG_typedef, DW_AT_name("va_list")
    1815                            .dwattr $C$DW$T$63, DW_AT_type(*$C$DW$T$19)
    1816                            .dwattr $C$DW$T$63, DW_AT_language(DW_LANG_C)
    1817                            .dwattr $C$DW$T$63, DW_AT_decl_file("C:/TI_CodeComposer/ccsv6/tools/compiler/arm_5.1.7/include
    1818                            .dwattr $C$DW$T$63, DW_AT_decl_line(0x33)
    1819                            .dwattr $C$DW$T$63, DW_AT_decl_column(0x03)
    1820                            .dwattr $C$DW$CU, DW_AT_language(DW_LANG_C)
    1821                    
    1822                    ;***************************************************************
    1823                    ;* DWARF CIE ENTRIES                                           *
    1824                    ;***************************************************************
    1825                    
    1826                    $C$DW$CIE       .dwcie 14
    1827                            .dwcfi  cfa_register, 13
    1828                            .dwcfi  cfa_offset, 0
    1829                            .dwcfi  undefined, 0
    1830                            .dwcfi  undefined, 1
    1831                            .dwcfi  undefined, 2
    1832                            .dwcfi  undefined, 3
    1833                            .dwcfi  same_value, 4
    1834                            .dwcfi  same_value, 5
    1835                            .dwcfi  same_value, 6
    1836                            .dwcfi  same_value, 7
    1837                            .dwcfi  same_value, 8
    1838                            .dwcfi  same_value, 9
    1839                            .dwcfi  same_value, 10
TI ARM Assembler PC v5.1.7 Thu Oct 30 20:25:15 2014

Tools Copyright (c) 1996-2014 Texas Instruments Incorporated
uartstdio.asm                                                        PAGE   35

    1840                            .dwcfi  same_value, 11
    1841                            .dwcfi  undefined, 12
    1842                            .dwcfi  undefined, 13
    1843                            .dwcfi  undefined, 14
    1844                            .dwcfi  undefined, 14
    1845                            .dwcfi  undefined, 7
    1846                            .dwendentry
    1847                            .dwendtag $C$DW$CU
    1848                    

--------------------------
Thumb2 Statistics
--------------------------
Number of Thumb2 ins converted to Thumb = 0 (0%)
Number of Thumb ins in input = 442 (85%)
Number of Thumb2 ins encoded as Thumb2 = 75 (100%)
Number of Thumb2 ins converted to 2 OPND Thumb = 137


No Assembly Errors, No Assembly Warnings
